
KERNEL.o:     file format elf32-i386


Disassembly of section .text:

00100000 <__kernel_image_start>:
  100000:	02 b0 ad 1b 03 00    	add    0x31bad(%eax),%dh
  100006:	00 00                	add    %al,(%eax)
  100008:	fb                   	sti    
  100009:	4f                   	dec    %edi
  10000a:	52                   	push   %edx
  10000b:	e4 55                	in     $0x55,%al

0010000c <__set_bit>:
  10000c:	55                   	push   %ebp
  10000d:	89 e5                	mov    %esp,%ebp
  10000f:	53                   	push   %ebx
  100010:	83 7d 10 00          	cmpl   $0x0,0x10(%ebp)
  100014:	75 19                	jne    10002f <__set_bit+0x23>
  100016:	8b 45 08             	mov    0x8(%ebp),%eax
  100019:	8b 10                	mov    (%eax),%edx
  10001b:	8b 45 0c             	mov    0xc(%ebp),%eax
  10001e:	bb 01 00 00 00       	mov    $0x1,%ebx
  100023:	88 c1                	mov    %al,%cl
  100025:	d3 e3                	shl    %cl,%ebx
  100027:	89 d8                	mov    %ebx,%eax
  100029:	f7 d0                	not    %eax
  10002b:	21 c2                	and    %eax,%edx
  10002d:	eb 15                	jmp    100044 <__set_bit+0x38>
  10002f:	8b 45 08             	mov    0x8(%ebp),%eax
  100032:	8b 10                	mov    (%eax),%edx
  100034:	8b 45 0c             	mov    0xc(%ebp),%eax
  100037:	bb 01 00 00 00       	mov    $0x1,%ebx
  10003c:	88 c1                	mov    %al,%cl
  10003e:	d3 e3                	shl    %cl,%ebx
  100040:	89 d8                	mov    %ebx,%eax
  100042:	09 c2                	or     %eax,%edx
  100044:	8b 45 08             	mov    0x8(%ebp),%eax
  100047:	89 10                	mov    %edx,(%eax)
  100049:	5b                   	pop    %ebx
  10004a:	5d                   	pop    %ebp
  10004b:	c3                   	ret    

0010004c <__get_bit>:
  10004c:	55                   	push   %ebp
  10004d:	89 e5                	mov    %esp,%ebp
  10004f:	8b 45 0c             	mov    0xc(%ebp),%eax
  100052:	8b 55 08             	mov    0x8(%ebp),%edx
  100055:	88 c1                	mov    %al,%cl
  100057:	d3 fa                	sar    %cl,%edx
  100059:	89 d0                	mov    %edx,%eax
  10005b:	83 e0 01             	and    $0x1,%eax
  10005e:	5d                   	pop    %ebp
  10005f:	c3                   	ret    

00100060 <entry_set_present>:
  100060:	55                   	push   %ebp
  100061:	89 e5                	mov    %esp,%ebp
  100063:	83 ec 0c             	sub    $0xc,%esp
  100066:	c7 44 24 08 01 00 00 	movl   $0x1,0x8(%esp)
  10006d:	00 
  10006e:	c7 44 24 04 00 00 00 	movl   $0x0,0x4(%esp)
  100075:	00 
  100076:	8b 45 08             	mov    0x8(%ebp),%eax
  100079:	89 04 24             	mov    %eax,(%esp)
  10007c:	e8 8b ff ff ff       	call   10000c <__set_bit>
  100081:	c9                   	leave  
  100082:	c3                   	ret    

00100083 <entry_is_present>:
  100083:	55                   	push   %ebp
  100084:	89 e5                	mov    %esp,%ebp
  100086:	83 ec 08             	sub    $0x8,%esp
  100089:	8b 45 08             	mov    0x8(%ebp),%eax
  10008c:	8b 00                	mov    (%eax),%eax
  10008e:	c7 44 24 04 00 00 00 	movl   $0x0,0x4(%esp)
  100095:	00 
  100096:	89 04 24             	mov    %eax,(%esp)
  100099:	e8 ae ff ff ff       	call   10004c <__get_bit>
  10009e:	c9                   	leave  
  10009f:	c3                   	ret    

001000a0 <entry_set_readwrite>:
  1000a0:	55                   	push   %ebp
  1000a1:	89 e5                	mov    %esp,%ebp
  1000a3:	83 ec 0c             	sub    $0xc,%esp
  1000a6:	c7 44 24 08 01 00 00 	movl   $0x1,0x8(%esp)
  1000ad:	00 
  1000ae:	c7 44 24 04 01 00 00 	movl   $0x1,0x4(%esp)
  1000b5:	00 
  1000b6:	8b 45 08             	mov    0x8(%ebp),%eax
  1000b9:	89 04 24             	mov    %eax,(%esp)
  1000bc:	e8 4b ff ff ff       	call   10000c <__set_bit>
  1000c1:	c9                   	leave  
  1000c2:	c3                   	ret    

001000c3 <entry_set_supervisor>:
  1000c3:	55                   	push   %ebp
  1000c4:	89 e5                	mov    %esp,%ebp
  1000c6:	83 ec 0c             	sub    $0xc,%esp
  1000c9:	c7 44 24 08 01 00 00 	movl   $0x1,0x8(%esp)
  1000d0:	00 
  1000d1:	c7 44 24 04 02 00 00 	movl   $0x2,0x4(%esp)
  1000d8:	00 
  1000d9:	8b 45 08             	mov    0x8(%ebp),%eax
  1000dc:	89 04 24             	mov    %eax,(%esp)
  1000df:	e8 28 ff ff ff       	call   10000c <__set_bit>
  1000e4:	c9                   	leave  
  1000e5:	c3                   	ret    

001000e6 <entry_set_addr>:
  1000e6:	55                   	push   %ebp
  1000e7:	89 e5                	mov    %esp,%ebp
  1000e9:	83 ec 18             	sub    $0x18,%esp
  1000ec:	8b 45 0c             	mov    0xc(%ebp),%eax
  1000ef:	c1 e8 0c             	shr    $0xc,%eax
  1000f2:	c1 e0 0c             	shl    $0xc,%eax
  1000f5:	3b 45 0c             	cmp    0xc(%ebp),%eax
  1000f8:	74 24                	je     10011e <entry_set_addr+0x38>
  1000fa:	c7 44 24 0c 00 90 10 	movl   $0x109000,0xc(%esp)
  100101:	00 
  100102:	c7 44 24 08 b3 00 00 	movl   $0xb3,0x8(%esp)
  100109:	00 
  10010a:	c7 44 24 04 54 90 10 	movl   $0x109054,0x4(%esp)
  100111:	00 
  100112:	c7 04 24 88 90 10 00 	movl   $0x109088,(%esp)
  100119:	e8 c6 58 00 00       	call   1059e4 <panic>
  10011e:	8b 45 08             	mov    0x8(%ebp),%eax
  100121:	8b 00                	mov    (%eax),%eax
  100123:	25 ff 07 00 00       	and    $0x7ff,%eax
  100128:	89 c2                	mov    %eax,%edx
  10012a:	8b 45 08             	mov    0x8(%ebp),%eax
  10012d:	89 10                	mov    %edx,(%eax)
  10012f:	8b 45 08             	mov    0x8(%ebp),%eax
  100132:	8b 00                	mov    (%eax),%eax
  100134:	0b 45 0c             	or     0xc(%ebp),%eax
  100137:	89 c2                	mov    %eax,%edx
  100139:	8b 45 08             	mov    0x8(%ebp),%eax
  10013c:	89 10                	mov    %edx,(%eax)
  10013e:	c9                   	leave  
  10013f:	c3                   	ret    

00100140 <entry_get_addr>:
  100140:	55                   	push   %ebp
  100141:	89 e5                	mov    %esp,%ebp
  100143:	8b 45 08             	mov    0x8(%ebp),%eax
  100146:	8b 00                	mov    (%eax),%eax
  100148:	25 00 f8 ff ff       	and    $0xfffff800,%eax
  10014d:	5d                   	pop    %ebp
  10014e:	c3                   	ret    

0010014f <get_pde>:
  10014f:	55                   	push   %ebp
  100150:	89 e5                	mov    %esp,%ebp
  100152:	8b 45 0c             	mov    0xc(%ebp),%eax
  100155:	c1 e8 16             	shr    $0x16,%eax
  100158:	8d 14 85 00 00 00 00 	lea    0x0(,%eax,4),%edx
  10015f:	8b 45 08             	mov    0x8(%ebp),%eax
  100162:	01 d0                	add    %edx,%eax
  100164:	5d                   	pop    %ebp
  100165:	c3                   	ret    

00100166 <get_pte>:
  100166:	55                   	push   %ebp
  100167:	89 e5                	mov    %esp,%ebp
  100169:	8b 45 0c             	mov    0xc(%ebp),%eax
  10016c:	c1 e8 0c             	shr    $0xc,%eax
  10016f:	25 ff 03 00 00       	and    $0x3ff,%eax
  100174:	8d 14 85 00 00 00 00 	lea    0x0(,%eax,4),%edx
  10017b:	8b 45 08             	mov    0x8(%ebp),%eax
  10017e:	01 d0                	add    %edx,%eax
  100180:	5d                   	pop    %ebp
  100181:	c3                   	ret    

00100182 <x86_bootstrap_region>:
  100182:	55                   	push   %ebp
  100183:	89 e5                	mov    %esp,%ebp
  100185:	83 ec 58             	sub    $0x58,%esp
  100188:	8b 45 1c             	mov    0x1c(%ebp),%eax
  10018b:	89 44 24 1c          	mov    %eax,0x1c(%esp)
  10018f:	8b 45 18             	mov    0x18(%ebp),%eax
  100192:	89 44 24 18          	mov    %eax,0x18(%esp)
  100196:	8b 45 14             	mov    0x14(%ebp),%eax
  100199:	89 44 24 14          	mov    %eax,0x14(%esp)
  10019d:	8b 45 10             	mov    0x10(%ebp),%eax
  1001a0:	89 44 24 10          	mov    %eax,0x10(%esp)
  1001a4:	8b 45 0c             	mov    0xc(%ebp),%eax
  1001a7:	89 44 24 0c          	mov    %eax,0xc(%esp)
  1001ab:	8b 45 08             	mov    0x8(%ebp),%eax
  1001ae:	89 44 24 08          	mov    %eax,0x8(%esp)
  1001b2:	c7 44 24 04 f0 92 10 	movl   $0x1092f0,0x4(%esp)
  1001b9:	00 
  1001ba:	c7 04 24 a8 90 10 00 	movl   $0x1090a8,(%esp)
  1001c1:	e8 7b 59 00 00       	call   105b41 <trace>
  1001c6:	8b 45 10             	mov    0x10(%ebp),%eax
  1001c9:	c1 e8 16             	shr    $0x16,%eax
  1001cc:	c1 e0 16             	shl    $0x16,%eax
  1001cf:	89 45 f0             	mov    %eax,-0x10(%ebp)
  1001d2:	8b 45 f0             	mov    -0x10(%ebp),%eax
  1001d5:	89 44 24 0c          	mov    %eax,0xc(%esp)
  1001d9:	c7 44 24 08 fd 90 10 	movl   $0x1090fd,0x8(%esp)
  1001e0:	00 
  1001e1:	c7 44 24 04 0f 91 10 	movl   $0x10910f,0x4(%esp)
  1001e8:	00 
  1001e9:	c7 04 24 03 00 00 00 	movl   $0x3,(%esp)
  1001f0:	e8 09 59 00 00       	call   105afe <log>
  1001f5:	8b 45 14             	mov    0x14(%ebp),%eax
  1001f8:	8b 55 10             	mov    0x10(%ebp),%edx
  1001fb:	01 d0                	add    %edx,%eax
  1001fd:	05 ff ff 3f 00       	add    $0x3fffff,%eax
  100202:	c1 e8 16             	shr    $0x16,%eax
  100205:	c1 e0 16             	shl    $0x16,%eax
  100208:	89 45 ec             	mov    %eax,-0x14(%ebp)
  10020b:	8b 45 ec             	mov    -0x14(%ebp),%eax
  10020e:	89 44 24 0c          	mov    %eax,0xc(%esp)
  100212:	c7 44 24 08 18 91 10 	movl   $0x109118,0x8(%esp)
  100219:	00 
  10021a:	c7 44 24 04 0f 91 10 	movl   $0x10910f,0x4(%esp)
  100221:	00 
  100222:	c7 04 24 03 00 00 00 	movl   $0x3,(%esp)
  100229:	e8 d0 58 00 00       	call   105afe <log>
  10022e:	8b 45 f0             	mov    -0x10(%ebp),%eax
  100231:	8b 55 ec             	mov    -0x14(%ebp),%edx
  100234:	29 c2                	sub    %eax,%edx
  100236:	89 d0                	mov    %edx,%eax
  100238:	c1 e8 16             	shr    $0x16,%eax
  10023b:	89 45 e8             	mov    %eax,-0x18(%ebp)
  10023e:	8b 45 e8             	mov    -0x18(%ebp),%eax
  100241:	89 44 24 0c          	mov    %eax,0xc(%esp)
  100245:	c7 44 24 08 29 91 10 	movl   $0x109129,0x8(%esp)
  10024c:	00 
  10024d:	c7 44 24 04 0f 91 10 	movl   $0x10910f,0x4(%esp)
  100254:	00 
  100255:	c7 04 24 03 00 00 00 	movl   $0x3,(%esp)
  10025c:	e8 9d 58 00 00       	call   105afe <log>
  100261:	c7 45 f4 00 00 00 00 	movl   $0x0,-0xc(%ebp)
  100268:	e9 a0 00 00 00       	jmp    10030d <x86_bootstrap_region+0x18b>
  10026d:	8b 45 f0             	mov    -0x10(%ebp),%eax
  100270:	89 44 24 04          	mov    %eax,0x4(%esp)
  100274:	8b 45 08             	mov    0x8(%ebp),%eax
  100277:	89 04 24             	mov    %eax,(%esp)
  10027a:	e8 d0 fe ff ff       	call   10014f <get_pde>
  10027f:	89 45 e4             	mov    %eax,-0x1c(%ebp)
  100282:	8b 45 f4             	mov    -0xc(%ebp),%eax
  100285:	c1 e0 0c             	shl    $0xc,%eax
  100288:	89 c2                	mov    %eax,%edx
  10028a:	8b 45 0c             	mov    0xc(%ebp),%eax
  10028d:	01 d0                	add    %edx,%eax
  10028f:	89 45 e0             	mov    %eax,-0x20(%ebp)
  100292:	8b 45 f4             	mov    -0xc(%ebp),%eax
  100295:	c1 e0 0c             	shl    $0xc,%eax
  100298:	89 c2                	mov    %eax,%edx
  10029a:	8b 45 0c             	mov    0xc(%ebp),%eax
  10029d:	01 d0                	add    %edx,%eax
  10029f:	89 04 24             	mov    %eax,(%esp)
  1002a2:	e8 49 0a 00 00       	call   100cf0 <entry_table_init>
  1002a7:	8b 45 e0             	mov    -0x20(%ebp),%eax
  1002aa:	89 44 24 04          	mov    %eax,0x4(%esp)
  1002ae:	8b 45 e4             	mov    -0x1c(%ebp),%eax
  1002b1:	89 04 24             	mov    %eax,(%esp)
  1002b4:	e8 2d fe ff ff       	call   1000e6 <entry_set_addr>
  1002b9:	8b 45 e4             	mov    -0x1c(%ebp),%eax
  1002bc:	89 04 24             	mov    %eax,(%esp)
  1002bf:	e8 9c fd ff ff       	call   100060 <entry_set_present>
  1002c4:	8b 45 e4             	mov    -0x1c(%ebp),%eax
  1002c7:	89 04 24             	mov    %eax,(%esp)
  1002ca:	e8 d1 fd ff ff       	call   1000a0 <entry_set_readwrite>
  1002cf:	8b 45 e4             	mov    -0x1c(%ebp),%eax
  1002d2:	89 04 24             	mov    %eax,(%esp)
  1002d5:	e8 66 fe ff ff       	call   100140 <entry_get_addr>
  1002da:	3b 45 e0             	cmp    -0x20(%ebp),%eax
  1002dd:	74 24                	je     100303 <x86_bootstrap_region+0x181>
  1002df:	c7 44 24 0c 3c 91 10 	movl   $0x10913c,0xc(%esp)
  1002e6:	00 
  1002e7:	c7 44 24 08 53 00 00 	movl   $0x53,0x8(%esp)
  1002ee:	00 
  1002ef:	c7 44 24 04 60 91 10 	movl   $0x109160,0x4(%esp)
  1002f6:	00 
  1002f7:	c7 04 24 88 90 10 00 	movl   $0x109088,(%esp)
  1002fe:	e8 e1 56 00 00       	call   1059e4 <panic>
  100303:	81 45 f0 00 00 40 00 	addl   $0x400000,-0x10(%ebp)
  10030a:	ff 45 f4             	incl   -0xc(%ebp)
  10030d:	8b 45 f4             	mov    -0xc(%ebp),%eax
  100310:	3b 45 e8             	cmp    -0x18(%ebp),%eax
  100313:	0f 82 54 ff ff ff    	jb     10026d <x86_bootstrap_region+0xeb>
  100319:	c7 45 f4 00 00 00 00 	movl   $0x0,-0xc(%ebp)
  100320:	e9 3e 01 00 00       	jmp    100463 <x86_bootstrap_region+0x2e1>
  100325:	8b 45 f4             	mov    -0xc(%ebp),%eax
  100328:	c1 e0 0c             	shl    $0xc,%eax
  10032b:	89 c2                	mov    %eax,%edx
  10032d:	8b 45 10             	mov    0x10(%ebp),%eax
  100330:	01 d0                	add    %edx,%eax
  100332:	89 45 f0             	mov    %eax,-0x10(%ebp)
  100335:	8b 45 f4             	mov    -0xc(%ebp),%eax
  100338:	c1 e0 0c             	shl    $0xc,%eax
  10033b:	89 c2                	mov    %eax,%edx
  10033d:	8b 45 18             	mov    0x18(%ebp),%eax
  100340:	01 d0                	add    %edx,%eax
  100342:	89 45 dc             	mov    %eax,-0x24(%ebp)
  100345:	8b 45 f0             	mov    -0x10(%ebp),%eax
  100348:	89 44 24 04          	mov    %eax,0x4(%esp)
  10034c:	8b 45 08             	mov    0x8(%ebp),%eax
  10034f:	89 04 24             	mov    %eax,(%esp)
  100352:	e8 f8 fd ff ff       	call   10014f <get_pde>
  100357:	89 45 d8             	mov    %eax,-0x28(%ebp)
  10035a:	8b 45 d8             	mov    -0x28(%ebp),%eax
  10035d:	89 04 24             	mov    %eax,(%esp)
  100360:	e8 1e fd ff ff       	call   100083 <entry_is_present>
  100365:	84 c0                	test   %al,%al
  100367:	75 24                	jne    10038d <x86_bootstrap_region+0x20b>
  100369:	c7 44 24 0c 9a 91 10 	movl   $0x10919a,0xc(%esp)
  100370:	00 
  100371:	c7 44 24 08 65 00 00 	movl   $0x65,0x8(%esp)
  100378:	00 
  100379:	c7 44 24 04 60 91 10 	movl   $0x109160,0x4(%esp)
  100380:	00 
  100381:	c7 04 24 88 90 10 00 	movl   $0x109088,(%esp)
  100388:	e8 57 56 00 00       	call   1059e4 <panic>
  10038d:	8b 45 d8             	mov    -0x28(%ebp),%eax
  100390:	89 04 24             	mov    %eax,(%esp)
  100393:	e8 a8 fd ff ff       	call   100140 <entry_get_addr>
  100398:	89 45 d4             	mov    %eax,-0x2c(%ebp)
  10039b:	8b 45 f0             	mov    -0x10(%ebp),%eax
  10039e:	89 44 24 04          	mov    %eax,0x4(%esp)
  1003a2:	8b 45 d4             	mov    -0x2c(%ebp),%eax
  1003a5:	89 04 24             	mov    %eax,(%esp)
  1003a8:	e8 b9 fd ff ff       	call   100166 <get_pte>
  1003ad:	89 45 d0             	mov    %eax,-0x30(%ebp)
  1003b0:	8b 45 d0             	mov    -0x30(%ebp),%eax
  1003b3:	89 04 24             	mov    %eax,(%esp)
  1003b6:	e8 a5 fc ff ff       	call   100060 <entry_set_present>
  1003bb:	8b 45 d0             	mov    -0x30(%ebp),%eax
  1003be:	89 04 24             	mov    %eax,(%esp)
  1003c1:	e8 fd fc ff ff       	call   1000c3 <entry_set_supervisor>
  1003c6:	8b 45 d0             	mov    -0x30(%ebp),%eax
  1003c9:	89 04 24             	mov    %eax,(%esp)
  1003cc:	e8 cf fc ff ff       	call   1000a0 <entry_set_readwrite>
  1003d1:	8b 45 dc             	mov    -0x24(%ebp),%eax
  1003d4:	89 44 24 04          	mov    %eax,0x4(%esp)
  1003d8:	8b 45 d0             	mov    -0x30(%ebp),%eax
  1003db:	89 04 24             	mov    %eax,(%esp)
  1003de:	e8 03 fd ff ff       	call   1000e6 <entry_set_addr>
  1003e3:	8b 45 d0             	mov    -0x30(%ebp),%eax
  1003e6:	89 04 24             	mov    %eax,(%esp)
  1003e9:	e8 52 fd ff ff       	call   100140 <entry_get_addr>
  1003ee:	3b 45 dc             	cmp    -0x24(%ebp),%eax
  1003f1:	74 24                	je     100417 <x86_bootstrap_region+0x295>
  1003f3:	c7 44 24 0c b0 91 10 	movl   $0x1091b0,0xc(%esp)
  1003fa:	00 
  1003fb:	c7 44 24 08 6f 00 00 	movl   $0x6f,0x8(%esp)
  100402:	00 
  100403:	c7 44 24 04 60 91 10 	movl   $0x109160,0x4(%esp)
  10040a:	00 
  10040b:	c7 04 24 88 90 10 00 	movl   $0x109088,(%esp)
  100412:	e8 cd 55 00 00       	call   1059e4 <panic>
  100417:	8d 45 cc             	lea    -0x34(%ebp),%eax
  10041a:	89 44 24 08          	mov    %eax,0x8(%esp)
  10041e:	8b 45 f0             	mov    -0x10(%ebp),%eax
  100421:	89 44 24 04          	mov    %eax,0x4(%esp)
  100425:	8b 45 08             	mov    0x8(%ebp),%eax
  100428:	89 04 24             	mov    %eax,(%esp)
  10042b:	e8 af 0b 00 00       	call   100fdf <x86_vtop>
  100430:	84 c0                	test   %al,%al
  100432:	74 08                	je     10043c <x86_bootstrap_region+0x2ba>
  100434:	8b 45 cc             	mov    -0x34(%ebp),%eax
  100437:	39 45 dc             	cmp    %eax,-0x24(%ebp)
  10043a:	74 24                	je     100460 <x86_bootstrap_region+0x2de>
  10043c:	c7 44 24 0c d0 91 10 	movl   $0x1091d0,0xc(%esp)
  100443:	00 
  100444:	c7 44 24 08 70 00 00 	movl   $0x70,0x8(%esp)
  10044b:	00 
  10044c:	c7 44 24 04 60 91 10 	movl   $0x109160,0x4(%esp)
  100453:	00 
  100454:	c7 04 24 88 90 10 00 	movl   $0x109088,(%esp)
  10045b:	e8 84 55 00 00       	call   1059e4 <panic>
  100460:	ff 45 f4             	incl   -0xc(%ebp)
  100463:	8b 45 1c             	mov    0x1c(%ebp),%eax
  100466:	c1 e8 0c             	shr    $0xc,%eax
  100469:	3b 45 f4             	cmp    -0xc(%ebp),%eax
  10046c:	0f 87 b3 fe ff ff    	ja     100325 <x86_bootstrap_region+0x1a3>
  100472:	8b 45 1c             	mov    0x1c(%ebp),%eax
  100475:	8b 55 10             	mov    0x10(%ebp),%edx
  100478:	01 d0                	add    %edx,%eax
  10047a:	89 44 24 10          	mov    %eax,0x10(%esp)
  10047e:	8b 45 10             	mov    0x10(%ebp),%eax
  100481:	89 44 24 0c          	mov    %eax,0xc(%esp)
  100485:	c7 44 24 08 fc 91 10 	movl   $0x1091fc,0x8(%esp)
  10048c:	00 
  10048d:	c7 44 24 04 0f 91 10 	movl   $0x10910f,0x4(%esp)
  100494:	00 
  100495:	c7 04 24 03 00 00 00 	movl   $0x3,(%esp)
  10049c:	e8 5d 56 00 00       	call   105afe <log>
  1004a1:	8b 45 1c             	mov    0x1c(%ebp),%eax
  1004a4:	8b 55 10             	mov    0x10(%ebp),%edx
  1004a7:	01 c2                	add    %eax,%edx
  1004a9:	8b 45 ec             	mov    -0x14(%ebp),%eax
  1004ac:	89 44 24 10          	mov    %eax,0x10(%esp)
  1004b0:	89 54 24 0c          	mov    %edx,0xc(%esp)
  1004b4:	c7 44 24 08 20 92 10 	movl   $0x109220,0x8(%esp)
  1004bb:	00 
  1004bc:	c7 44 24 04 0f 91 10 	movl   $0x10910f,0x4(%esp)
  1004c3:	00 
  1004c4:	c7 04 24 03 00 00 00 	movl   $0x3,(%esp)
  1004cb:	e8 2e 56 00 00       	call   105afe <log>
  1004d0:	c9                   	leave  
  1004d1:	c3                   	ret    

001004d2 <x86_vm_bootstrap>:
  1004d2:	55                   	push   %ebp
  1004d3:	89 e5                	mov    %esp,%ebp
  1004d5:	53                   	push   %ebx
  1004d6:	83 ec 24             	sub    $0x24,%esp
  1004d9:	8b 45 08             	mov    0x8(%ebp),%eax
  1004dc:	89 44 24 08          	mov    %eax,0x8(%esp)
  1004e0:	c7 44 24 04 05 93 10 	movl   $0x109305,0x4(%esp)
  1004e7:	00 
  1004e8:	c7 04 24 48 92 10 00 	movl   $0x109248,(%esp)
  1004ef:	e8 4d 56 00 00       	call   105b41 <trace>
  1004f4:	81 7d 08 00 10 00 00 	cmpl   $0x1000,0x8(%ebp)
  1004fb:	74 24                	je     100521 <x86_vm_bootstrap+0x4f>
  1004fd:	c7 44 24 0c 6d 92 10 	movl   $0x10926d,0xc(%esp)
  100504:	00 
  100505:	c7 44 24 08 83 00 00 	movl   $0x83,0x8(%esp)
  10050c:	00 
  10050d:	c7 44 24 04 60 91 10 	movl   $0x109160,0x4(%esp)
  100514:	00 
  100515:	c7 04 24 88 90 10 00 	movl   $0x109088,(%esp)
  10051c:	e8 c3 54 00 00       	call   1059e4 <panic>
  100521:	b8 00 10 21 00       	mov    $0x211000,%eax
  100526:	ba 00 10 21 00       	mov    $0x211000,%edx
  10052b:	c1 ea 0c             	shr    $0xc,%edx
  10052e:	c1 e2 0c             	shl    $0xc,%edx
  100531:	39 d0                	cmp    %edx,%eax
  100533:	74 24                	je     100559 <x86_vm_bootstrap+0x87>
  100535:	c7 44 24 0c 8c 92 10 	movl   $0x10928c,0xc(%esp)
  10053c:	00 
  10053d:	c7 44 24 08 85 00 00 	movl   $0x85,0x8(%esp)
  100544:	00 
  100545:	c7 44 24 04 60 91 10 	movl   $0x109160,0x4(%esp)
  10054c:	00 
  10054d:	c7 04 24 88 90 10 00 	movl   $0x109088,(%esp)
  100554:	e8 8b 54 00 00       	call   1059e4 <panic>
  100559:	c7 04 24 00 10 21 00 	movl   $0x211000,(%esp)
  100560:	e8 8b 07 00 00       	call   100cf0 <entry_table_init>
  100565:	8b 1d 54 02 21 00    	mov    0x210254,%ebx
  10056b:	8b 0d 50 02 21 00    	mov    0x210250,%ecx
  100571:	8b 15 34 02 21 00    	mov    0x210234,%edx
  100577:	a1 30 02 21 00       	mov    0x210230,%eax
  10057c:	89 5c 24 14          	mov    %ebx,0x14(%esp)
  100580:	89 4c 24 10          	mov    %ecx,0x10(%esp)
  100584:	89 54 24 0c          	mov    %edx,0xc(%esp)
  100588:	89 44 24 08          	mov    %eax,0x8(%esp)
  10058c:	c7 44 24 04 00 00 11 	movl   $0x110000,0x4(%esp)
  100593:	00 
  100594:	c7 04 24 00 10 21 00 	movl   $0x211000,(%esp)
  10059b:	e8 e2 fb ff ff       	call   100182 <x86_bootstrap_region>
  1005a0:	b8 00 10 21 00       	mov    $0x211000,%eax
  1005a5:	89 04 24             	mov    %eax,(%esp)
  1005a8:	e8 27 01 00 00       	call   1006d4 <x86_set_pagedir>
  1005ad:	e8 40 02 00 00       	call   1007f2 <x86_enable_global_pages>
  1005b2:	e8 6b 02 00 00       	call   100822 <x86_enable_write_protect>
  1005b7:	e8 46 01 00 00       	call   100702 <x86_enable_paging>
  1005bc:	b8 00 00 00 00       	mov    $0x0,%eax
  1005c1:	83 c4 24             	add    $0x24,%esp
  1005c4:	5b                   	pop    %ebx
  1005c5:	5d                   	pop    %ebp
  1005c6:	c3                   	ret    
  1005c7:	90                   	nop

001005c8 <x86_exn_handle_all>:
  1005c8:	55                   	push   %ebp
  1005c9:	89 e5                	mov    %esp,%ebp
  1005cb:	83 ec 18             	sub    $0x18,%esp
  1005ce:	a1 00 20 21 00       	mov    0x212000,%eax
  1005d3:	8d 55 08             	lea    0x8(%ebp),%edx
  1005d6:	89 14 24             	mov    %edx,(%esp)
  1005d9:	ff d0                	call   *%eax
  1005db:	c9                   	leave  
  1005dc:	c3                   	ret    

001005dd <x86_exn_init>:
  1005dd:	55                   	push   %ebp
  1005de:	89 e5                	mov    %esp,%ebp
  1005e0:	83 ec 28             	sub    $0x28,%esp
  1005e3:	c7 45 f4 00 00 00 00 	movl   $0x0,-0xc(%ebp)
  1005ea:	eb 2b                	jmp    100617 <x86_exn_init+0x3a>
  1005ec:	8b 55 f4             	mov    -0xc(%ebp),%edx
  1005ef:	89 d0                	mov    %edx,%eax
  1005f1:	c1 e0 05             	shl    $0x5,%eax
  1005f4:	01 d0                	add    %edx,%eax
  1005f6:	01 c0                	add    %eax,%eax
  1005f8:	01 d0                	add    %edx,%eax
  1005fa:	c1 e0 02             	shl    $0x2,%eax
  1005fd:	05 00 d1 10 00       	add    $0x10d100,%eax
  100602:	8b 40 08             	mov    0x8(%eax),%eax
  100605:	89 44 24 04          	mov    %eax,0x4(%esp)
  100609:	8b 45 f4             	mov    -0xc(%ebp),%eax
  10060c:	89 04 24             	mov    %eax,(%esp)
  10060f:	e8 f0 03 00 00       	call   100a04 <idt_exn_gate>
  100614:	ff 45 f4             	incl   -0xc(%ebp)
  100617:	83 7d f4 13          	cmpl   $0x13,-0xc(%ebp)
  10061b:	7e cf                	jle    1005ec <x86_exn_init+0xf>
  10061d:	8b 45 08             	mov    0x8(%ebp),%eax
  100620:	a3 00 20 21 00       	mov    %eax,0x212000
  100625:	b8 00 00 00 00       	mov    $0x0,%eax
  10062a:	c9                   	leave  
  10062b:	c3                   	ret    

0010062c <__set_bit>:
  10062c:	55                   	push   %ebp
  10062d:	89 e5                	mov    %esp,%ebp
  10062f:	53                   	push   %ebx
  100630:	83 7d 10 00          	cmpl   $0x0,0x10(%ebp)
  100634:	75 19                	jne    10064f <__set_bit+0x23>
  100636:	8b 45 08             	mov    0x8(%ebp),%eax
  100639:	8b 10                	mov    (%eax),%edx
  10063b:	8b 45 0c             	mov    0xc(%ebp),%eax
  10063e:	bb 01 00 00 00       	mov    $0x1,%ebx
  100643:	88 c1                	mov    %al,%cl
  100645:	d3 e3                	shl    %cl,%ebx
  100647:	89 d8                	mov    %ebx,%eax
  100649:	f7 d0                	not    %eax
  10064b:	21 c2                	and    %eax,%edx
  10064d:	eb 15                	jmp    100664 <__set_bit+0x38>
  10064f:	8b 45 08             	mov    0x8(%ebp),%eax
  100652:	8b 10                	mov    (%eax),%edx
  100654:	8b 45 0c             	mov    0xc(%ebp),%eax
  100657:	bb 01 00 00 00       	mov    $0x1,%ebx
  10065c:	88 c1                	mov    %al,%cl
  10065e:	d3 e3                	shl    %cl,%ebx
  100660:	89 d8                	mov    %ebx,%eax
  100662:	09 c2                	or     %eax,%edx
  100664:	8b 45 08             	mov    0x8(%ebp),%eax
  100667:	89 10                	mov    %edx,(%eax)
  100669:	5b                   	pop    %ebx
  10066a:	5d                   	pop    %ebp
  10066b:	c3                   	ret    

0010066c <cr0_set_bit>:
  10066c:	55                   	push   %ebp
  10066d:	89 e5                	mov    %esp,%ebp
  10066f:	83 ec 28             	sub    $0x28,%esp
  100672:	e8 07 7b 00 00       	call   10817e <get_cr0>
  100677:	89 45 f4             	mov    %eax,-0xc(%ebp)
  10067a:	8b 45 0c             	mov    0xc(%ebp),%eax
  10067d:	89 44 24 08          	mov    %eax,0x8(%esp)
  100681:	8b 45 08             	mov    0x8(%ebp),%eax
  100684:	89 44 24 04          	mov    %eax,0x4(%esp)
  100688:	8d 45 f4             	lea    -0xc(%ebp),%eax
  10068b:	89 04 24             	mov    %eax,(%esp)
  10068e:	e8 99 ff ff ff       	call   10062c <__set_bit>
  100693:	8b 45 f4             	mov    -0xc(%ebp),%eax
  100696:	89 04 24             	mov    %eax,(%esp)
  100699:	e8 f0 7a 00 00       	call   10818e <set_cr0>
  10069e:	c9                   	leave  
  10069f:	c3                   	ret    

001006a0 <cr4_set_bit>:
  1006a0:	55                   	push   %ebp
  1006a1:	89 e5                	mov    %esp,%ebp
  1006a3:	83 ec 28             	sub    $0x28,%esp
  1006a6:	e8 df 7a 00 00       	call   10818a <get_cr4>
  1006ab:	89 45 f4             	mov    %eax,-0xc(%ebp)
  1006ae:	8b 45 0c             	mov    0xc(%ebp),%eax
  1006b1:	89 44 24 08          	mov    %eax,0x8(%esp)
  1006b5:	8b 45 08             	mov    0x8(%ebp),%eax
  1006b8:	89 44 24 04          	mov    %eax,0x4(%esp)
  1006bc:	8d 45 f4             	lea    -0xc(%ebp),%eax
  1006bf:	89 04 24             	mov    %eax,(%esp)
  1006c2:	e8 65 ff ff ff       	call   10062c <__set_bit>
  1006c7:	8b 45 f4             	mov    -0xc(%ebp),%eax
  1006ca:	89 04 24             	mov    %eax,(%esp)
  1006cd:	e8 e1 7a 00 00       	call   1081b3 <set_cr4>
  1006d2:	c9                   	leave  
  1006d3:	c3                   	ret    

001006d4 <x86_set_pagedir>:
  1006d4:	55                   	push   %ebp
  1006d5:	89 e5                	mov    %esp,%ebp
  1006d7:	83 ec 18             	sub    $0x18,%esp
  1006da:	8b 45 08             	mov    0x8(%ebp),%eax
  1006dd:	89 44 24 08          	mov    %eax,0x8(%esp)
  1006e1:	c7 44 24 04 3b 93 10 	movl   $0x10933b,0x4(%esp)
  1006e8:	00 
  1006e9:	c7 04 24 16 93 10 00 	movl   $0x109316,(%esp)
  1006f0:	e8 4c 54 00 00       	call   105b41 <trace>
  1006f5:	8b 45 08             	mov    0x8(%ebp),%eax
  1006f8:	89 04 24             	mov    %eax,(%esp)
  1006fb:	e8 ab 7a 00 00       	call   1081ab <set_cr3>
  100700:	c9                   	leave  
  100701:	c3                   	ret    

00100702 <x86_enable_paging>:
  100702:	55                   	push   %ebp
  100703:	89 e5                	mov    %esp,%ebp
  100705:	83 ec 18             	sub    $0x18,%esp
  100708:	c7 44 24 04 4b 93 10 	movl   $0x10934b,0x4(%esp)
  10070f:	00 
  100710:	c7 04 24 2d 93 10 00 	movl   $0x10932d,(%esp)
  100717:	e8 25 54 00 00       	call   105b41 <trace>
  10071c:	c7 44 24 04 01 00 00 	movl   $0x1,0x4(%esp)
  100723:	00 
  100724:	c7 04 24 1f 00 00 00 	movl   $0x1f,(%esp)
  10072b:	e8 3c ff ff ff       	call   10066c <cr0_set_bit>
  100730:	c9                   	leave  
  100731:	c3                   	ret    

00100732 <x86_disable_paging>:
  100732:	55                   	push   %ebp
  100733:	89 e5                	mov    %esp,%ebp
  100735:	83 ec 18             	sub    $0x18,%esp
  100738:	c7 44 24 04 5d 93 10 	movl   $0x10935d,0x4(%esp)
  10073f:	00 
  100740:	c7 04 24 2d 93 10 00 	movl   $0x10932d,(%esp)
  100747:	e8 f5 53 00 00       	call   105b41 <trace>
  10074c:	c7 44 24 04 00 00 00 	movl   $0x0,0x4(%esp)
  100753:	00 
  100754:	c7 04 24 1f 00 00 00 	movl   $0x1f,(%esp)
  10075b:	e8 0c ff ff ff       	call   10066c <cr0_set_bit>
  100760:	c9                   	leave  
  100761:	c3                   	ret    

00100762 <x86_enable_protected_mode>:
  100762:	55                   	push   %ebp
  100763:	89 e5                	mov    %esp,%ebp
  100765:	83 ec 18             	sub    $0x18,%esp
  100768:	c7 44 24 04 70 93 10 	movl   $0x109370,0x4(%esp)
  10076f:	00 
  100770:	c7 04 24 2d 93 10 00 	movl   $0x10932d,(%esp)
  100777:	e8 c5 53 00 00       	call   105b41 <trace>
  10077c:	c7 44 24 04 01 00 00 	movl   $0x1,0x4(%esp)
  100783:	00 
  100784:	c7 04 24 00 00 00 00 	movl   $0x0,(%esp)
  10078b:	e8 dc fe ff ff       	call   10066c <cr0_set_bit>
  100790:	c9                   	leave  
  100791:	c3                   	ret    

00100792 <x86_enable_real_mode>:
  100792:	55                   	push   %ebp
  100793:	89 e5                	mov    %esp,%ebp
  100795:	83 ec 18             	sub    $0x18,%esp
  100798:	c7 44 24 04 8a 93 10 	movl   $0x10938a,0x4(%esp)
  10079f:	00 
  1007a0:	c7 04 24 2d 93 10 00 	movl   $0x10932d,(%esp)
  1007a7:	e8 95 53 00 00       	call   105b41 <trace>
  1007ac:	c7 44 24 04 00 00 00 	movl   $0x0,0x4(%esp)
  1007b3:	00 
  1007b4:	c7 04 24 00 00 00 00 	movl   $0x0,(%esp)
  1007bb:	e8 ac fe ff ff       	call   10066c <cr0_set_bit>
  1007c0:	c9                   	leave  
  1007c1:	c3                   	ret    

001007c2 <x86_disable_fpu>:
  1007c2:	55                   	push   %ebp
  1007c3:	89 e5                	mov    %esp,%ebp
  1007c5:	83 ec 18             	sub    $0x18,%esp
  1007c8:	c7 44 24 04 9f 93 10 	movl   $0x10939f,0x4(%esp)
  1007cf:	00 
  1007d0:	c7 04 24 2d 93 10 00 	movl   $0x10932d,(%esp)
  1007d7:	e8 65 53 00 00       	call   105b41 <trace>
  1007dc:	c7 44 24 04 01 00 00 	movl   $0x1,0x4(%esp)
  1007e3:	00 
  1007e4:	c7 04 24 02 00 00 00 	movl   $0x2,(%esp)
  1007eb:	e8 7c fe ff ff       	call   10066c <cr0_set_bit>
  1007f0:	c9                   	leave  
  1007f1:	c3                   	ret    

001007f2 <x86_enable_global_pages>:
  1007f2:	55                   	push   %ebp
  1007f3:	89 e5                	mov    %esp,%ebp
  1007f5:	83 ec 18             	sub    $0x18,%esp
  1007f8:	c7 44 24 04 af 93 10 	movl   $0x1093af,0x4(%esp)
  1007ff:	00 
  100800:	c7 04 24 2d 93 10 00 	movl   $0x10932d,(%esp)
  100807:	e8 35 53 00 00       	call   105b41 <trace>
  10080c:	c7 44 24 04 01 00 00 	movl   $0x1,0x4(%esp)
  100813:	00 
  100814:	c7 04 24 07 00 00 00 	movl   $0x7,(%esp)
  10081b:	e8 80 fe ff ff       	call   1006a0 <cr4_set_bit>
  100820:	c9                   	leave  
  100821:	c3                   	ret    

00100822 <x86_enable_write_protect>:
  100822:	55                   	push   %ebp
  100823:	89 e5                	mov    %esp,%ebp
  100825:	83 ec 18             	sub    $0x18,%esp
  100828:	c7 44 24 04 c7 93 10 	movl   $0x1093c7,0x4(%esp)
  10082f:	00 
  100830:	c7 04 24 2d 93 10 00 	movl   $0x10932d,(%esp)
  100837:	e8 05 53 00 00       	call   105b41 <trace>
  10083c:	c7 44 24 04 01 00 00 	movl   $0x1,0x4(%esp)
  100843:	00 
  100844:	c7 04 24 10 00 00 00 	movl   $0x10,(%esp)
  10084b:	e8 1c fe ff ff       	call   10066c <cr0_set_bit>
  100850:	c9                   	leave  
  100851:	c3                   	ret    
  100852:	66 90                	xchg   %ax,%ax

00100854 <gd_upper>:
  100854:	55                   	push   %ebp
  100855:	89 e5                	mov    %esp,%ebp
  100857:	83 ec 20             	sub    $0x20,%esp
  10085a:	8b 45 08             	mov    0x8(%ebp),%eax
  10085d:	8b 40 04             	mov    0x4(%eax),%eax
  100860:	25 00 00 ff ff       	and    $0xffff0000,%eax
  100865:	89 45 fc             	mov    %eax,-0x4(%ebp)
  100868:	8b 45 08             	mov    0x8(%ebp),%eax
  10086b:	8a 40 08             	mov    0x8(%eax),%al
  10086e:	25 ff 00 00 00       	and    $0xff,%eax
  100873:	c1 e0 0f             	shl    $0xf,%eax
  100876:	25 ff ff 00 00       	and    $0xffff,%eax
  10087b:	89 45 f8             	mov    %eax,-0x8(%ebp)
  10087e:	8b 45 08             	mov    0x8(%ebp),%eax
  100881:	8a 40 09             	mov    0x9(%eax),%al
  100884:	25 ff 00 00 00       	and    $0xff,%eax
  100889:	83 e0 03             	and    $0x3,%eax
  10088c:	c1 e0 0d             	shl    $0xd,%eax
  10088f:	89 45 f4             	mov    %eax,-0xc(%ebp)
  100892:	8b 45 08             	mov    0x8(%ebp),%eax
  100895:	8a 40 0a             	mov    0xa(%eax),%al
  100898:	25 ff 00 00 00       	and    $0xff,%eax
  10089d:	83 e0 01             	and    $0x1,%eax
  1008a0:	c1 e0 02             	shl    $0x2,%eax
  1008a3:	83 c0 03             	add    $0x3,%eax
  1008a6:	c1 e0 09             	shl    $0x9,%eax
  1008a9:	89 45 f0             	mov    %eax,-0x10(%ebp)
  1008ac:	8b 45 08             	mov    0x8(%ebp),%eax
  1008af:	8a 40 0b             	mov    0xb(%eax),%al
  1008b2:	25 ff 00 00 00       	and    $0xff,%eax
  1008b7:	83 e0 01             	and    $0x1,%eax
  1008ba:	c1 e0 08             	shl    $0x8,%eax
  1008bd:	89 45 ec             	mov    %eax,-0x14(%ebp)
  1008c0:	8b 45 f8             	mov    -0x8(%ebp),%eax
  1008c3:	8b 55 fc             	mov    -0x4(%ebp),%edx
  1008c6:	09 d0                	or     %edx,%eax
  1008c8:	0b 45 f4             	or     -0xc(%ebp),%eax
  1008cb:	0b 45 f0             	or     -0x10(%ebp),%eax
  1008ce:	0b 45 ec             	or     -0x14(%ebp),%eax
  1008d1:	b0 00                	mov    $0x0,%al
  1008d3:	c9                   	leave  
  1008d4:	c3                   	ret    

001008d5 <gd_lower>:
  1008d5:	55                   	push   %ebp
  1008d6:	89 e5                	mov    %esp,%ebp
  1008d8:	83 ec 10             	sub    $0x10,%esp
  1008db:	8b 45 08             	mov    0x8(%ebp),%eax
  1008de:	8b 00                	mov    (%eax),%eax
  1008e0:	c1 e0 10             	shl    $0x10,%eax
  1008e3:	89 45 fc             	mov    %eax,-0x4(%ebp)
  1008e6:	8b 45 08             	mov    0x8(%ebp),%eax
  1008e9:	8b 40 04             	mov    0x4(%eax),%eax
  1008ec:	25 ff ff 00 00       	and    $0xffff,%eax
  1008f1:	89 45 f8             	mov    %eax,-0x8(%ebp)
  1008f4:	8b 45 f8             	mov    -0x8(%ebp),%eax
  1008f7:	8b 55 fc             	mov    -0x4(%ebp),%edx
  1008fa:	09 d0                	or     %edx,%eax
  1008fc:	c9                   	leave  
  1008fd:	c3                   	ret    

001008fe <idt_install_gate>:
  1008fe:	55                   	push   %ebp
  1008ff:	89 e5                	mov    %esp,%ebp
  100901:	56                   	push   %esi
  100902:	53                   	push   %ebx
  100903:	83 ec 30             	sub    $0x30,%esp
  100906:	8b 45 08             	mov    0x8(%ebp),%eax
  100909:	8b 75 14             	mov    0x14(%ebp),%esi
  10090c:	8b 5d 18             	mov    0x18(%ebp),%ebx
  10090f:	8b 4d 1c             	mov    0x1c(%ebp),%ecx
  100912:	8b 55 20             	mov    0x20(%ebp),%edx
  100915:	66 89 45 e4          	mov    %ax,-0x1c(%ebp)
  100919:	89 f0                	mov    %esi,%eax
  10091b:	88 45 e0             	mov    %al,-0x20(%ebp)
  10091e:	88 5d dc             	mov    %bl,-0x24(%ebp)
  100921:	88 4d d8             	mov    %cl,-0x28(%ebp)
  100924:	88 55 d4             	mov    %dl,-0x2c(%ebp)
  100927:	e8 22 78 00 00       	call   10814e <idt_get_base>
  10092c:	89 45 f4             	mov    %eax,-0xc(%ebp)
  10092f:	8b 45 0c             	mov    0xc(%ebp),%eax
  100932:	89 45 e8             	mov    %eax,-0x18(%ebp)
  100935:	8b 45 10             	mov    0x10(%ebp),%eax
  100938:	89 45 ec             	mov    %eax,-0x14(%ebp)
  10093b:	8a 45 e0             	mov    -0x20(%ebp),%al
  10093e:	88 45 f0             	mov    %al,-0x10(%ebp)
  100941:	8a 45 dc             	mov    -0x24(%ebp),%al
  100944:	88 45 f1             	mov    %al,-0xf(%ebp)
  100947:	8a 45 d8             	mov    -0x28(%ebp),%al
  10094a:	88 45 f2             	mov    %al,-0xe(%ebp)
  10094d:	8a 45 d4             	mov    -0x2c(%ebp),%al
  100950:	88 45 f3             	mov    %al,-0xd(%ebp)
  100953:	8b 45 e4             	mov    -0x1c(%ebp),%eax
  100956:	25 ff ff 00 00       	and    $0xffff,%eax
  10095b:	c1 e0 03             	shl    $0x3,%eax
  10095e:	89 c2                	mov    %eax,%edx
  100960:	8b 45 f4             	mov    -0xc(%ebp),%eax
  100963:	01 d0                	add    %edx,%eax
  100965:	89 c3                	mov    %eax,%ebx
  100967:	8d 45 e8             	lea    -0x18(%ebp),%eax
  10096a:	89 04 24             	mov    %eax,(%esp)
  10096d:	e8 63 ff ff ff       	call   1008d5 <gd_lower>
  100972:	89 03                	mov    %eax,(%ebx)
  100974:	8b 45 e4             	mov    -0x1c(%ebp),%eax
  100977:	25 ff ff 00 00       	and    $0xffff,%eax
  10097c:	c1 e0 03             	shl    $0x3,%eax
  10097f:	89 c2                	mov    %eax,%edx
  100981:	8b 45 f4             	mov    -0xc(%ebp),%eax
  100984:	01 d0                	add    %edx,%eax
  100986:	83 c0 04             	add    $0x4,%eax
  100989:	89 c3                	mov    %eax,%ebx
  10098b:	8d 45 e8             	lea    -0x18(%ebp),%eax
  10098e:	89 04 24             	mov    %eax,(%esp)
  100991:	e8 be fe ff ff       	call   100854 <gd_upper>
  100996:	89 03                	mov    %eax,(%ebx)
  100998:	83 c4 30             	add    $0x30,%esp
  10099b:	5b                   	pop    %ebx
  10099c:	5e                   	pop    %esi
  10099d:	5d                   	pop    %ebp
  10099e:	c3                   	ret    

0010099f <idt_install_default_gate>:
  10099f:	55                   	push   %ebp
  1009a0:	89 e5                	mov    %esp,%ebp
  1009a2:	53                   	push   %ebx
  1009a3:	83 ec 34             	sub    $0x34,%esp
  1009a6:	8b 45 08             	mov    0x8(%ebp),%eax
  1009a9:	8b 4d 10             	mov    0x10(%ebp),%ecx
  1009ac:	8b 55 14             	mov    0x14(%ebp),%edx
  1009af:	66 89 45 f4          	mov    %ax,-0xc(%ebp)
  1009b3:	88 4d f0             	mov    %cl,-0x10(%ebp)
  1009b6:	88 55 ec             	mov    %dl,-0x14(%ebp)
  1009b9:	8a 45 f0             	mov    -0x10(%ebp),%al
  1009bc:	31 db                	xor    %ebx,%ebx
  1009be:	88 c3                	mov    %al,%bl
  1009c0:	8a 45 ec             	mov    -0x14(%ebp),%al
  1009c3:	31 c9                	xor    %ecx,%ecx
  1009c5:	88 c1                	mov    %al,%cl
  1009c7:	8b 55 0c             	mov    0xc(%ebp),%edx
  1009ca:	8b 45 f4             	mov    -0xc(%ebp),%eax
  1009cd:	25 ff ff 00 00       	and    $0xffff,%eax
  1009d2:	89 5c 24 18          	mov    %ebx,0x18(%esp)
  1009d6:	c7 44 24 14 01 00 00 	movl   $0x1,0x14(%esp)
  1009dd:	00 
  1009de:	89 4c 24 10          	mov    %ecx,0x10(%esp)
  1009e2:	c7 44 24 0c 01 00 00 	movl   $0x1,0xc(%esp)
  1009e9:	00 
  1009ea:	89 54 24 08          	mov    %edx,0x8(%esp)
  1009ee:	c7 44 24 04 10 00 00 	movl   $0x10,0x4(%esp)
  1009f5:	00 
  1009f6:	89 04 24             	mov    %eax,(%esp)
  1009f9:	e8 00 ff ff ff       	call   1008fe <idt_install_gate>
  1009fe:	83 c4 34             	add    $0x34,%esp
  100a01:	5b                   	pop    %ebx
  100a02:	5d                   	pop    %ebp
  100a03:	c3                   	ret    

00100a04 <idt_exn_gate>:
  100a04:	55                   	push   %ebp
  100a05:	89 e5                	mov    %esp,%ebp
  100a07:	83 ec 28             	sub    $0x28,%esp
  100a0a:	8b 55 0c             	mov    0xc(%ebp),%edx
  100a0d:	8b 45 08             	mov    0x8(%ebp),%eax
  100a10:	25 ff ff 00 00       	and    $0xffff,%eax
  100a15:	c7 44 24 18 01 00 00 	movl   $0x1,0x18(%esp)
  100a1c:	00 
  100a1d:	c7 44 24 14 01 00 00 	movl   $0x1,0x14(%esp)
  100a24:	00 
  100a25:	c7 44 24 10 03 00 00 	movl   $0x3,0x10(%esp)
  100a2c:	00 
  100a2d:	c7 44 24 0c 01 00 00 	movl   $0x1,0xc(%esp)
  100a34:	00 
  100a35:	89 54 24 08          	mov    %edx,0x8(%esp)
  100a39:	c7 44 24 04 10 00 00 	movl   $0x10,0x4(%esp)
  100a40:	00 
  100a41:	89 04 24             	mov    %eax,(%esp)
  100a44:	e8 b5 fe ff ff       	call   1008fe <idt_install_gate>
  100a49:	c9                   	leave  
  100a4a:	c3                   	ret    

00100a4b <idt_irq_gate>:
  100a4b:	55                   	push   %ebp
  100a4c:	89 e5                	mov    %esp,%ebp
  100a4e:	83 ec 28             	sub    $0x28,%esp
  100a51:	8b 55 0c             	mov    0xc(%ebp),%edx
  100a54:	8b 45 08             	mov    0x8(%ebp),%eax
  100a57:	25 ff ff 00 00       	and    $0xffff,%eax
  100a5c:	c7 44 24 18 00 00 00 	movl   $0x0,0x18(%esp)
  100a63:	00 
  100a64:	c7 44 24 14 01 00 00 	movl   $0x1,0x14(%esp)
  100a6b:	00 
  100a6c:	c7 44 24 10 00 00 00 	movl   $0x0,0x10(%esp)
  100a73:	00 
  100a74:	c7 44 24 0c 01 00 00 	movl   $0x1,0xc(%esp)
  100a7b:	00 
  100a7c:	89 54 24 08          	mov    %edx,0x8(%esp)
  100a80:	c7 44 24 04 10 00 00 	movl   $0x10,0x4(%esp)
  100a87:	00 
  100a88:	89 04 24             	mov    %eax,(%esp)
  100a8b:	e8 6e fe ff ff       	call   1008fe <idt_install_gate>
  100a90:	c9                   	leave  
  100a91:	c3                   	ret    
  100a92:	66 90                	xchg   %ax,%ax

00100a94 <__set_bit>:
  100a94:	55                   	push   %ebp
  100a95:	89 e5                	mov    %esp,%ebp
  100a97:	53                   	push   %ebx
  100a98:	83 7d 10 00          	cmpl   $0x0,0x10(%ebp)
  100a9c:	75 19                	jne    100ab7 <__set_bit+0x23>
  100a9e:	8b 45 08             	mov    0x8(%ebp),%eax
  100aa1:	8b 10                	mov    (%eax),%edx
  100aa3:	8b 45 0c             	mov    0xc(%ebp),%eax
  100aa6:	bb 01 00 00 00       	mov    $0x1,%ebx
  100aab:	88 c1                	mov    %al,%cl
  100aad:	d3 e3                	shl    %cl,%ebx
  100aaf:	89 d8                	mov    %ebx,%eax
  100ab1:	f7 d0                	not    %eax
  100ab3:	21 c2                	and    %eax,%edx
  100ab5:	eb 15                	jmp    100acc <__set_bit+0x38>
  100ab7:	8b 45 08             	mov    0x8(%ebp),%eax
  100aba:	8b 10                	mov    (%eax),%edx
  100abc:	8b 45 0c             	mov    0xc(%ebp),%eax
  100abf:	bb 01 00 00 00       	mov    $0x1,%ebx
  100ac4:	88 c1                	mov    %al,%cl
  100ac6:	d3 e3                	shl    %cl,%ebx
  100ac8:	89 d8                	mov    %ebx,%eax
  100aca:	09 c2                	or     %eax,%edx
  100acc:	8b 45 08             	mov    0x8(%ebp),%eax
  100acf:	89 10                	mov    %edx,(%eax)
  100ad1:	5b                   	pop    %ebx
  100ad2:	5d                   	pop    %ebp
  100ad3:	c3                   	ret    

00100ad4 <__get_bit>:
  100ad4:	55                   	push   %ebp
  100ad5:	89 e5                	mov    %esp,%ebp
  100ad7:	8b 45 0c             	mov    0xc(%ebp),%eax
  100ada:	8b 55 08             	mov    0x8(%ebp),%edx
  100add:	88 c1                	mov    %al,%cl
  100adf:	d3 fa                	sar    %cl,%edx
  100ae1:	89 d0                	mov    %edx,%eax
  100ae3:	83 e0 01             	and    $0x1,%eax
  100ae6:	5d                   	pop    %ebp
  100ae7:	c3                   	ret    

00100ae8 <entry_set_present>:
  100ae8:	55                   	push   %ebp
  100ae9:	89 e5                	mov    %esp,%ebp
  100aeb:	83 ec 0c             	sub    $0xc,%esp
  100aee:	c7 44 24 08 01 00 00 	movl   $0x1,0x8(%esp)
  100af5:	00 
  100af6:	c7 44 24 04 00 00 00 	movl   $0x0,0x4(%esp)
  100afd:	00 
  100afe:	8b 45 08             	mov    0x8(%ebp),%eax
  100b01:	89 04 24             	mov    %eax,(%esp)
  100b04:	e8 8b ff ff ff       	call   100a94 <__set_bit>
  100b09:	c9                   	leave  
  100b0a:	c3                   	ret    

00100b0b <entry_set_absent>:
  100b0b:	55                   	push   %ebp
  100b0c:	89 e5                	mov    %esp,%ebp
  100b0e:	83 ec 0c             	sub    $0xc,%esp
  100b11:	c7 44 24 08 00 00 00 	movl   $0x0,0x8(%esp)
  100b18:	00 
  100b19:	c7 44 24 04 00 00 00 	movl   $0x0,0x4(%esp)
  100b20:	00 
  100b21:	8b 45 08             	mov    0x8(%ebp),%eax
  100b24:	89 04 24             	mov    %eax,(%esp)
  100b27:	e8 68 ff ff ff       	call   100a94 <__set_bit>
  100b2c:	c9                   	leave  
  100b2d:	c3                   	ret    

00100b2e <entry_is_present>:
  100b2e:	55                   	push   %ebp
  100b2f:	89 e5                	mov    %esp,%ebp
  100b31:	83 ec 08             	sub    $0x8,%esp
  100b34:	8b 45 08             	mov    0x8(%ebp),%eax
  100b37:	8b 00                	mov    (%eax),%eax
  100b39:	c7 44 24 04 00 00 00 	movl   $0x0,0x4(%esp)
  100b40:	00 
  100b41:	89 04 24             	mov    %eax,(%esp)
  100b44:	e8 8b ff ff ff       	call   100ad4 <__get_bit>
  100b49:	c9                   	leave  
  100b4a:	c3                   	ret    

00100b4b <entry_set_readwrite>:
  100b4b:	55                   	push   %ebp
  100b4c:	89 e5                	mov    %esp,%ebp
  100b4e:	83 ec 0c             	sub    $0xc,%esp
  100b51:	c7 44 24 08 01 00 00 	movl   $0x1,0x8(%esp)
  100b58:	00 
  100b59:	c7 44 24 04 01 00 00 	movl   $0x1,0x4(%esp)
  100b60:	00 
  100b61:	8b 45 08             	mov    0x8(%ebp),%eax
  100b64:	89 04 24             	mov    %eax,(%esp)
  100b67:	e8 28 ff ff ff       	call   100a94 <__set_bit>
  100b6c:	c9                   	leave  
  100b6d:	c3                   	ret    

00100b6e <entry_set_readonly>:
  100b6e:	55                   	push   %ebp
  100b6f:	89 e5                	mov    %esp,%ebp
  100b71:	83 ec 0c             	sub    $0xc,%esp
  100b74:	c7 44 24 08 00 00 00 	movl   $0x0,0x8(%esp)
  100b7b:	00 
  100b7c:	c7 44 24 04 01 00 00 	movl   $0x1,0x4(%esp)
  100b83:	00 
  100b84:	8b 45 08             	mov    0x8(%ebp),%eax
  100b87:	89 04 24             	mov    %eax,(%esp)
  100b8a:	e8 05 ff ff ff       	call   100a94 <__set_bit>
  100b8f:	c9                   	leave  
  100b90:	c3                   	ret    

00100b91 <entry_set_supervisor>:
  100b91:	55                   	push   %ebp
  100b92:	89 e5                	mov    %esp,%ebp
  100b94:	83 ec 0c             	sub    $0xc,%esp
  100b97:	c7 44 24 08 01 00 00 	movl   $0x1,0x8(%esp)
  100b9e:	00 
  100b9f:	c7 44 24 04 02 00 00 	movl   $0x2,0x4(%esp)
  100ba6:	00 
  100ba7:	8b 45 08             	mov    0x8(%ebp),%eax
  100baa:	89 04 24             	mov    %eax,(%esp)
  100bad:	e8 e2 fe ff ff       	call   100a94 <__set_bit>
  100bb2:	c9                   	leave  
  100bb3:	c3                   	ret    

00100bb4 <entry_set_user>:
  100bb4:	55                   	push   %ebp
  100bb5:	89 e5                	mov    %esp,%ebp
  100bb7:	83 ec 0c             	sub    $0xc,%esp
  100bba:	c7 44 24 08 00 00 00 	movl   $0x0,0x8(%esp)
  100bc1:	00 
  100bc2:	c7 44 24 04 02 00 00 	movl   $0x2,0x4(%esp)
  100bc9:	00 
  100bca:	8b 45 08             	mov    0x8(%ebp),%eax
  100bcd:	89 04 24             	mov    %eax,(%esp)
  100bd0:	e8 bf fe ff ff       	call   100a94 <__set_bit>
  100bd5:	c9                   	leave  
  100bd6:	c3                   	ret    

00100bd7 <entry_set_addr>:
  100bd7:	55                   	push   %ebp
  100bd8:	89 e5                	mov    %esp,%ebp
  100bda:	83 ec 18             	sub    $0x18,%esp
  100bdd:	8b 45 0c             	mov    0xc(%ebp),%eax
  100be0:	c1 e8 0c             	shr    $0xc,%eax
  100be3:	c1 e0 0c             	shl    $0xc,%eax
  100be6:	3b 45 0c             	cmp    0xc(%ebp),%eax
  100be9:	74 24                	je     100c0f <entry_set_addr+0x38>
  100beb:	c7 44 24 0c e0 93 10 	movl   $0x1093e0,0xc(%esp)
  100bf2:	00 
  100bf3:	c7 44 24 08 b3 00 00 	movl   $0xb3,0x8(%esp)
  100bfa:	00 
  100bfb:	c7 44 24 04 34 94 10 	movl   $0x109434,0x4(%esp)
  100c02:	00 
  100c03:	c7 04 24 68 94 10 00 	movl   $0x109468,(%esp)
  100c0a:	e8 d5 4d 00 00       	call   1059e4 <panic>
  100c0f:	8b 45 08             	mov    0x8(%ebp),%eax
  100c12:	8b 00                	mov    (%eax),%eax
  100c14:	25 ff 07 00 00       	and    $0x7ff,%eax
  100c19:	89 c2                	mov    %eax,%edx
  100c1b:	8b 45 08             	mov    0x8(%ebp),%eax
  100c1e:	89 10                	mov    %edx,(%eax)
  100c20:	8b 45 08             	mov    0x8(%ebp),%eax
  100c23:	8b 00                	mov    (%eax),%eax
  100c25:	0b 45 0c             	or     0xc(%ebp),%eax
  100c28:	89 c2                	mov    %eax,%edx
  100c2a:	8b 45 08             	mov    0x8(%ebp),%eax
  100c2d:	89 10                	mov    %edx,(%eax)
  100c2f:	c9                   	leave  
  100c30:	c3                   	ret    

00100c31 <entry_get_addr>:
  100c31:	55                   	push   %ebp
  100c32:	89 e5                	mov    %esp,%ebp
  100c34:	8b 45 08             	mov    0x8(%ebp),%eax
  100c37:	8b 00                	mov    (%eax),%eax
  100c39:	25 00 f8 ff ff       	and    $0xfffff800,%eax
  100c3e:	5d                   	pop    %ebp
  100c3f:	c3                   	ret    

00100c40 <get_pde>:
  100c40:	55                   	push   %ebp
  100c41:	89 e5                	mov    %esp,%ebp
  100c43:	8b 45 0c             	mov    0xc(%ebp),%eax
  100c46:	c1 e8 16             	shr    $0x16,%eax
  100c49:	8d 14 85 00 00 00 00 	lea    0x0(,%eax,4),%edx
  100c50:	8b 45 08             	mov    0x8(%ebp),%eax
  100c53:	01 d0                	add    %edx,%eax
  100c55:	5d                   	pop    %ebp
  100c56:	c3                   	ret    

00100c57 <get_pte>:
  100c57:	55                   	push   %ebp
  100c58:	89 e5                	mov    %esp,%ebp
  100c5a:	8b 45 0c             	mov    0xc(%ebp),%eax
  100c5d:	c1 e8 0c             	shr    $0xc,%eax
  100c60:	25 ff 03 00 00       	and    $0x3ff,%eax
  100c65:	8d 14 85 00 00 00 00 	lea    0x0(,%eax,4),%edx
  100c6c:	8b 45 08             	mov    0x8(%ebp),%eax
  100c6f:	01 d0                	add    %edx,%eax
  100c71:	5d                   	pop    %ebp
  100c72:	c3                   	ret    

00100c73 <x86_vm_init_object>:
  100c73:	55                   	push   %ebp
  100c74:	89 e5                	mov    %esp,%ebp
  100c76:	83 ec 28             	sub    $0x28,%esp
  100c79:	e8 b8 00 00 00       	call   100d36 <entry_table_alloc>
  100c7e:	89 45 f4             	mov    %eax,-0xc(%ebp)
  100c81:	83 7d f4 00          	cmpl   $0x0,-0xc(%ebp)
  100c85:	75 07                	jne    100c8e <x86_vm_init_object+0x1b>
  100c87:	b8 01 00 00 00       	mov    $0x1,%eax
  100c8c:	eb 31                	jmp    100cbf <x86_vm_init_object+0x4c>
  100c8e:	8b 45 f4             	mov    -0xc(%ebp),%eax
  100c91:	89 04 24             	mov    %eax,(%esp)
  100c94:	e8 57 00 00 00       	call   100cf0 <entry_table_init>
  100c99:	89 45 f0             	mov    %eax,-0x10(%ebp)
  100c9c:	83 7d f0 00          	cmpl   $0x0,-0x10(%ebp)
  100ca0:	74 10                	je     100cb2 <x86_vm_init_object+0x3f>
  100ca2:	8b 45 f4             	mov    -0xc(%ebp),%eax
  100ca5:	89 04 24             	mov    %eax,(%esp)
  100ca8:	e8 a5 00 00 00       	call   100d52 <entry_table_free>
  100cad:	8b 45 f0             	mov    -0x10(%ebp),%eax
  100cb0:	eb 0d                	jmp    100cbf <x86_vm_init_object+0x4c>
  100cb2:	8b 45 08             	mov    0x8(%ebp),%eax
  100cb5:	8b 55 f4             	mov    -0xc(%ebp),%edx
  100cb8:	89 10                	mov    %edx,(%eax)
  100cba:	b8 00 00 00 00       	mov    $0x0,%eax
  100cbf:	c9                   	leave  
  100cc0:	c3                   	ret    

00100cc1 <x86_vm_map>:
  100cc1:	55                   	push   %ebp
  100cc2:	89 e5                	mov    %esp,%ebp
  100cc4:	83 ec 28             	sub    $0x28,%esp
  100cc7:	8b 45 18             	mov    0x18(%ebp),%eax
  100cca:	89 44 24 10          	mov    %eax,0x10(%esp)
  100cce:	8b 45 14             	mov    0x14(%ebp),%eax
  100cd1:	89 44 24 0c          	mov    %eax,0xc(%esp)
  100cd5:	8b 45 10             	mov    0x10(%ebp),%eax
  100cd8:	89 44 24 08          	mov    %eax,0x8(%esp)
  100cdc:	8b 45 0c             	mov    0xc(%ebp),%eax
  100cdf:	89 44 24 04          	mov    %eax,0x4(%esp)
  100ce3:	8b 45 08             	mov    0x8(%ebp),%eax
  100ce6:	89 04 24             	mov    %eax,(%esp)
  100ce9:	e8 72 02 00 00       	call   100f60 <x86_map_pages>
  100cee:	c9                   	leave  
  100cef:	c3                   	ret    

00100cf0 <entry_table_init>:
  100cf0:	55                   	push   %ebp
  100cf1:	89 e5                	mov    %esp,%ebp
  100cf3:	83 ec 14             	sub    $0x14,%esp
  100cf6:	c7 45 fc 00 00 00 00 	movl   $0x0,-0x4(%ebp)
  100cfd:	eb 27                	jmp    100d26 <entry_table_init+0x36>
  100cff:	8b 45 08             	mov    0x8(%ebp),%eax
  100d02:	8b 55 fc             	mov    -0x4(%ebp),%edx
  100d05:	c7 04 90 00 00 00 00 	movl   $0x0,(%eax,%edx,4)
  100d0c:	8b 45 fc             	mov    -0x4(%ebp),%eax
  100d0f:	8d 14 85 00 00 00 00 	lea    0x0(,%eax,4),%edx
  100d16:	8b 45 08             	mov    0x8(%ebp),%eax
  100d19:	01 d0                	add    %edx,%eax
  100d1b:	89 04 24             	mov    %eax,(%esp)
  100d1e:	e8 e8 fd ff ff       	call   100b0b <entry_set_absent>
  100d23:	ff 45 fc             	incl   -0x4(%ebp)
  100d26:	81 7d fc ff 03 00 00 	cmpl   $0x3ff,-0x4(%ebp)
  100d2d:	76 d0                	jbe    100cff <entry_table_init+0xf>
  100d2f:	b8 00 00 00 00       	mov    $0x0,%eax
  100d34:	c9                   	leave  
  100d35:	c3                   	ret    

00100d36 <entry_table_alloc>:
  100d36:	55                   	push   %ebp
  100d37:	89 e5                	mov    %esp,%ebp
  100d39:	83 ec 18             	sub    $0x18,%esp
  100d3c:	c7 44 24 04 00 10 00 	movl   $0x1000,0x4(%esp)
  100d43:	00 
  100d44:	c7 04 24 00 10 00 00 	movl   $0x1000,(%esp)
  100d4b:	e8 02 45 00 00       	call   105252 <kmemalign>
  100d50:	c9                   	leave  
  100d51:	c3                   	ret    

00100d52 <entry_table_free>:
  100d52:	55                   	push   %ebp
  100d53:	89 e5                	mov    %esp,%ebp
  100d55:	83 ec 18             	sub    $0x18,%esp
  100d58:	c7 44 24 04 00 10 00 	movl   $0x1000,0x4(%esp)
  100d5f:	00 
  100d60:	8b 45 08             	mov    0x8(%ebp),%eax
  100d63:	89 04 24             	mov    %eax,(%esp)
  100d66:	e8 a6 45 00 00       	call   105311 <kfree>
  100d6b:	c9                   	leave  
  100d6c:	c3                   	ret    

00100d6d <entry_set_flags>:
  100d6d:	55                   	push   %ebp
  100d6e:	89 e5                	mov    %esp,%ebp
  100d70:	83 ec 04             	sub    $0x4,%esp
  100d73:	8b 45 0c             	mov    0xc(%ebp),%eax
  100d76:	83 e0 01             	and    $0x1,%eax
  100d79:	85 c0                	test   %eax,%eax
  100d7b:	74 0d                	je     100d8a <entry_set_flags+0x1d>
  100d7d:	8b 45 08             	mov    0x8(%ebp),%eax
  100d80:	89 04 24             	mov    %eax,(%esp)
  100d83:	e8 c3 fd ff ff       	call   100b4b <entry_set_readwrite>
  100d88:	eb 0b                	jmp    100d95 <entry_set_flags+0x28>
  100d8a:	8b 45 08             	mov    0x8(%ebp),%eax
  100d8d:	89 04 24             	mov    %eax,(%esp)
  100d90:	e8 d9 fd ff ff       	call   100b6e <entry_set_readonly>
  100d95:	8b 45 0c             	mov    0xc(%ebp),%eax
  100d98:	83 e0 02             	and    $0x2,%eax
  100d9b:	85 c0                	test   %eax,%eax
  100d9d:	74 0d                	je     100dac <entry_set_flags+0x3f>
  100d9f:	8b 45 08             	mov    0x8(%ebp),%eax
  100da2:	89 04 24             	mov    %eax,(%esp)
  100da5:	e8 e7 fd ff ff       	call   100b91 <entry_set_supervisor>
  100daa:	eb 0b                	jmp    100db7 <entry_set_flags+0x4a>
  100dac:	8b 45 08             	mov    0x8(%ebp),%eax
  100daf:	89 04 24             	mov    %eax,(%esp)
  100db2:	e8 fd fd ff ff       	call   100bb4 <entry_set_user>
  100db7:	c9                   	leave  
  100db8:	c3                   	ret    

00100db9 <x86_map_page>:
  100db9:	55                   	push   %ebp
  100dba:	89 e5                	mov    %esp,%ebp
  100dbc:	83 ec 28             	sub    $0x28,%esp
  100dbf:	8b 45 0c             	mov    0xc(%ebp),%eax
  100dc2:	c1 e8 0c             	shr    $0xc,%eax
  100dc5:	c1 e0 0c             	shl    $0xc,%eax
  100dc8:	3b 45 0c             	cmp    0xc(%ebp),%eax
  100dcb:	74 24                	je     100df1 <x86_map_page+0x38>
  100dcd:	c7 44 24 0c 88 94 10 	movl   $0x109488,0xc(%esp)
  100dd4:	00 
  100dd5:	c7 44 24 08 7e 00 00 	movl   $0x7e,0x8(%esp)
  100ddc:	00 
  100ddd:	c7 44 24 04 c8 94 10 	movl   $0x1094c8,0x4(%esp)
  100de4:	00 
  100de5:	c7 04 24 68 94 10 00 	movl   $0x109468,(%esp)
  100dec:	e8 f3 4b 00 00       	call   1059e4 <panic>
  100df1:	8b 45 10             	mov    0x10(%ebp),%eax
  100df4:	c1 e8 0c             	shr    $0xc,%eax
  100df7:	c1 e0 0c             	shl    $0xc,%eax
  100dfa:	3b 45 10             	cmp    0x10(%ebp),%eax
  100dfd:	74 24                	je     100e23 <x86_map_page+0x6a>
  100dff:	c7 44 24 0c f8 94 10 	movl   $0x1094f8,0xc(%esp)
  100e06:	00 
  100e07:	c7 44 24 08 7f 00 00 	movl   $0x7f,0x8(%esp)
  100e0e:	00 
  100e0f:	c7 44 24 04 c8 94 10 	movl   $0x1094c8,0x4(%esp)
  100e16:	00 
  100e17:	c7 04 24 68 94 10 00 	movl   $0x109468,(%esp)
  100e1e:	e8 c1 4b 00 00       	call   1059e4 <panic>
  100e23:	8b 45 0c             	mov    0xc(%ebp),%eax
  100e26:	89 44 24 04          	mov    %eax,0x4(%esp)
  100e2a:	8b 45 08             	mov    0x8(%ebp),%eax
  100e2d:	89 04 24             	mov    %eax,(%esp)
  100e30:	e8 0b fe ff ff       	call   100c40 <get_pde>
  100e35:	89 45 f0             	mov    %eax,-0x10(%ebp)
  100e38:	8b 45 f0             	mov    -0x10(%ebp),%eax
  100e3b:	89 04 24             	mov    %eax,(%esp)
  100e3e:	e8 eb fc ff ff       	call   100b2e <entry_is_present>
  100e43:	84 c0                	test   %al,%al
  100e45:	75 52                	jne    100e99 <x86_map_page+0xe0>
  100e47:	e8 ea fe ff ff       	call   100d36 <entry_table_alloc>
  100e4c:	89 45 f4             	mov    %eax,-0xc(%ebp)
  100e4f:	83 7d f4 00          	cmpl   $0x0,-0xc(%ebp)
  100e53:	75 0a                	jne    100e5f <x86_map_page+0xa6>
  100e55:	b8 01 00 00 00       	mov    $0x1,%eax
  100e5a:	e9 ff 00 00 00       	jmp    100f5e <x86_map_page+0x1a5>
  100e5f:	8b 45 f4             	mov    -0xc(%ebp),%eax
  100e62:	89 04 24             	mov    %eax,(%esp)
  100e65:	e8 86 fe ff ff       	call   100cf0 <entry_table_init>
  100e6a:	8b 45 f4             	mov    -0xc(%ebp),%eax
  100e6d:	89 44 24 04          	mov    %eax,0x4(%esp)
  100e71:	8b 45 f0             	mov    -0x10(%ebp),%eax
  100e74:	89 04 24             	mov    %eax,(%esp)
  100e77:	e8 5b fd ff ff       	call   100bd7 <entry_set_addr>
  100e7c:	8b 45 f0             	mov    -0x10(%ebp),%eax
  100e7f:	89 04 24             	mov    %eax,(%esp)
  100e82:	e8 61 fc ff ff       	call   100ae8 <entry_set_present>
  100e87:	8b 45 14             	mov    0x14(%ebp),%eax
  100e8a:	89 44 24 04          	mov    %eax,0x4(%esp)
  100e8e:	8b 45 f0             	mov    -0x10(%ebp),%eax
  100e91:	89 04 24             	mov    %eax,(%esp)
  100e94:	e8 d4 fe ff ff       	call   100d6d <entry_set_flags>
  100e99:	8b 45 f0             	mov    -0x10(%ebp),%eax
  100e9c:	89 04 24             	mov    %eax,(%esp)
  100e9f:	e8 8a fc ff ff       	call   100b2e <entry_is_present>
  100ea4:	84 c0                	test   %al,%al
  100ea6:	75 24                	jne    100ecc <x86_map_page+0x113>
  100ea8:	c7 44 24 0c 38 95 10 	movl   $0x109538,0xc(%esp)
  100eaf:	00 
  100eb0:	c7 44 24 08 92 00 00 	movl   $0x92,0x8(%esp)
  100eb7:	00 
  100eb8:	c7 44 24 04 c8 94 10 	movl   $0x1094c8,0x4(%esp)
  100ebf:	00 
  100ec0:	c7 04 24 68 94 10 00 	movl   $0x109468,(%esp)
  100ec7:	e8 18 4b 00 00       	call   1059e4 <panic>
  100ecc:	8b 45 0c             	mov    0xc(%ebp),%eax
  100ecf:	89 44 24 04          	mov    %eax,0x4(%esp)
  100ed3:	8b 45 f4             	mov    -0xc(%ebp),%eax
  100ed6:	89 04 24             	mov    %eax,(%esp)
  100ed9:	e8 79 fd ff ff       	call   100c57 <get_pte>
  100ede:	89 45 ec             	mov    %eax,-0x14(%ebp)
  100ee1:	8b 45 10             	mov    0x10(%ebp),%eax
  100ee4:	89 44 24 04          	mov    %eax,0x4(%esp)
  100ee8:	8b 45 ec             	mov    -0x14(%ebp),%eax
  100eeb:	89 04 24             	mov    %eax,(%esp)
  100eee:	e8 e4 fc ff ff       	call   100bd7 <entry_set_addr>
  100ef3:	8b 45 ec             	mov    -0x14(%ebp),%eax
  100ef6:	89 04 24             	mov    %eax,(%esp)
  100ef9:	e8 ea fb ff ff       	call   100ae8 <entry_set_present>
  100efe:	8b 45 14             	mov    0x14(%ebp),%eax
  100f01:	89 44 24 04          	mov    %eax,0x4(%esp)
  100f05:	8b 45 ec             	mov    -0x14(%ebp),%eax
  100f08:	89 04 24             	mov    %eax,(%esp)
  100f0b:	e8 5d fe ff ff       	call   100d6d <entry_set_flags>
  100f10:	8d 45 e8             	lea    -0x18(%ebp),%eax
  100f13:	89 44 24 08          	mov    %eax,0x8(%esp)
  100f17:	8b 45 0c             	mov    0xc(%ebp),%eax
  100f1a:	89 44 24 04          	mov    %eax,0x4(%esp)
  100f1e:	8b 45 08             	mov    0x8(%ebp),%eax
  100f21:	89 04 24             	mov    %eax,(%esp)
  100f24:	e8 b6 00 00 00       	call   100fdf <x86_vtop>
  100f29:	84 c0                	test   %al,%al
  100f2b:	74 08                	je     100f35 <x86_map_page+0x17c>
  100f2d:	8b 45 e8             	mov    -0x18(%ebp),%eax
  100f30:	39 45 10             	cmp    %eax,0x10(%ebp)
  100f33:	74 24                	je     100f59 <x86_map_page+0x1a0>
  100f35:	c7 44 24 0c 50 95 10 	movl   $0x109550,0xc(%esp)
  100f3c:	00 
  100f3d:	c7 44 24 08 9a 00 00 	movl   $0x9a,0x8(%esp)
  100f44:	00 
  100f45:	c7 44 24 04 c8 94 10 	movl   $0x1094c8,0x4(%esp)
  100f4c:	00 
  100f4d:	c7 04 24 68 94 10 00 	movl   $0x109468,(%esp)
  100f54:	e8 8b 4a 00 00       	call   1059e4 <panic>
  100f59:	b8 00 00 00 00       	mov    $0x0,%eax
  100f5e:	c9                   	leave  
  100f5f:	c3                   	ret    

00100f60 <x86_map_pages>:
  100f60:	55                   	push   %ebp
  100f61:	89 e5                	mov    %esp,%ebp
  100f63:	83 ec 28             	sub    $0x28,%esp
  100f66:	c7 45 f4 00 00 00 00 	movl   $0x0,-0xc(%ebp)
  100f6d:	eb 61                	jmp    100fd0 <x86_map_pages+0x70>
  100f6f:	8b 45 f4             	mov    -0xc(%ebp),%eax
  100f72:	8d 14 85 00 00 00 00 	lea    0x0(,%eax,4),%edx
  100f79:	8b 45 10             	mov    0x10(%ebp),%eax
  100f7c:	01 d0                	add    %edx,%eax
  100f7e:	8b 10                	mov    (%eax),%edx
  100f80:	8b 45 f4             	mov    -0xc(%ebp),%eax
  100f83:	8d 0c 85 00 00 00 00 	lea    0x0(,%eax,4),%ecx
  100f8a:	8b 45 0c             	mov    0xc(%ebp),%eax
  100f8d:	01 c8                	add    %ecx,%eax
  100f8f:	8b 00                	mov    (%eax),%eax
  100f91:	8b 4d 18             	mov    0x18(%ebp),%ecx
  100f94:	89 4c 24 0c          	mov    %ecx,0xc(%esp)
  100f98:	89 54 24 08          	mov    %edx,0x8(%esp)
  100f9c:	89 44 24 04          	mov    %eax,0x4(%esp)
  100fa0:	8b 45 08             	mov    0x8(%ebp),%eax
  100fa3:	89 04 24             	mov    %eax,(%esp)
  100fa6:	e8 0e fe ff ff       	call   100db9 <x86_map_page>
  100fab:	89 45 ec             	mov    %eax,-0x14(%ebp)
  100fae:	83 7d ec 00          	cmpl   $0x0,-0x14(%ebp)
  100fb2:	74 19                	je     100fcd <x86_map_pages+0x6d>
  100fb4:	c7 45 f0 00 00 00 00 	movl   $0x0,-0x10(%ebp)
  100fbb:	eb 03                	jmp    100fc0 <x86_map_pages+0x60>
  100fbd:	ff 45 f0             	incl   -0x10(%ebp)
  100fc0:	8b 45 f0             	mov    -0x10(%ebp),%eax
  100fc3:	3b 45 f4             	cmp    -0xc(%ebp),%eax
  100fc6:	7c f5                	jl     100fbd <x86_map_pages+0x5d>
  100fc8:	8b 45 ec             	mov    -0x14(%ebp),%eax
  100fcb:	eb 10                	jmp    100fdd <x86_map_pages+0x7d>
  100fcd:	ff 45 f4             	incl   -0xc(%ebp)
  100fd0:	8b 45 f4             	mov    -0xc(%ebp),%eax
  100fd3:	3b 45 14             	cmp    0x14(%ebp),%eax
  100fd6:	7c 97                	jl     100f6f <x86_map_pages+0xf>
  100fd8:	b8 00 00 00 00       	mov    $0x0,%eax
  100fdd:	c9                   	leave  
  100fde:	c3                   	ret    

00100fdf <x86_vtop>:
  100fdf:	55                   	push   %ebp
  100fe0:	89 e5                	mov    %esp,%ebp
  100fe2:	83 ec 28             	sub    $0x28,%esp
  100fe5:	83 7d 10 00          	cmpl   $0x0,0x10(%ebp)
  100fe9:	75 24                	jne    10100f <x86_vtop+0x30>
  100feb:	c7 44 24 0c 7c 95 10 	movl   $0x10957c,0xc(%esp)
  100ff2:	00 
  100ff3:	c7 44 24 08 ca 00 00 	movl   $0xca,0x8(%esp)
  100ffa:	00 
  100ffb:	c7 44 24 04 c8 94 10 	movl   $0x1094c8,0x4(%esp)
  101002:	00 
  101003:	c7 04 24 68 94 10 00 	movl   $0x109468,(%esp)
  10100a:	e8 d5 49 00 00       	call   1059e4 <panic>
  10100f:	8b 45 0c             	mov    0xc(%ebp),%eax
  101012:	89 44 24 04          	mov    %eax,0x4(%esp)
  101016:	8b 45 08             	mov    0x8(%ebp),%eax
  101019:	89 04 24             	mov    %eax,(%esp)
  10101c:	e8 1f fc ff ff       	call   100c40 <get_pde>
  101021:	89 45 f4             	mov    %eax,-0xc(%ebp)
  101024:	8b 45 f4             	mov    -0xc(%ebp),%eax
  101027:	89 04 24             	mov    %eax,(%esp)
  10102a:	e8 ff fa ff ff       	call   100b2e <entry_is_present>
  10102f:	84 c0                	test   %al,%al
  101031:	75 04                	jne    101037 <x86_vtop+0x58>
  101033:	b0 00                	mov    $0x0,%al
  101035:	eb 53                	jmp    10108a <x86_vtop+0xab>
  101037:	8b 45 f4             	mov    -0xc(%ebp),%eax
  10103a:	89 04 24             	mov    %eax,(%esp)
  10103d:	e8 ef fb ff ff       	call   100c31 <entry_get_addr>
  101042:	89 45 f0             	mov    %eax,-0x10(%ebp)
  101045:	8b 45 0c             	mov    0xc(%ebp),%eax
  101048:	89 44 24 04          	mov    %eax,0x4(%esp)
  10104c:	8b 45 f0             	mov    -0x10(%ebp),%eax
  10104f:	89 04 24             	mov    %eax,(%esp)
  101052:	e8 00 fc ff ff       	call   100c57 <get_pte>
  101057:	89 45 ec             	mov    %eax,-0x14(%ebp)
  10105a:	8b 45 ec             	mov    -0x14(%ebp),%eax
  10105d:	89 04 24             	mov    %eax,(%esp)
  101060:	e8 c9 fa ff ff       	call   100b2e <entry_is_present>
  101065:	84 c0                	test   %al,%al
  101067:	75 04                	jne    10106d <x86_vtop+0x8e>
  101069:	b0 00                	mov    $0x0,%al
  10106b:	eb 1d                	jmp    10108a <x86_vtop+0xab>
  10106d:	8b 45 ec             	mov    -0x14(%ebp),%eax
  101070:	89 04 24             	mov    %eax,(%esp)
  101073:	e8 b9 fb ff ff       	call   100c31 <entry_get_addr>
  101078:	8b 55 0c             	mov    0xc(%ebp),%edx
  10107b:	81 e2 ff 0f 00 00    	and    $0xfff,%edx
  101081:	01 c2                	add    %eax,%edx
  101083:	8b 45 10             	mov    0x10(%ebp),%eax
  101086:	89 10                	mov    %edx,(%eax)
  101088:	b0 01                	mov    $0x1,%al
  10108a:	c9                   	leave  
  10108b:	c3                   	ret    

0010108c <pic_init>:
  10108c:	55                   	push   %ebp
  10108d:	89 e5                	mov    %esp,%ebp
  10108f:	83 ec 18             	sub    $0x18,%esp
  101092:	c7 44 24 04 28 00 00 	movl   $0x28,0x4(%esp)
  101099:	00 
  10109a:	c7 04 24 20 00 00 00 	movl   $0x20,(%esp)
  1010a1:	e8 07 00 00 00       	call   1010ad <pic_remap>
  1010a6:	b8 00 00 00 00       	mov    $0x0,%eax
  1010ab:	c9                   	leave  
  1010ac:	c3                   	ret    

001010ad <pic_remap>:
  1010ad:	55                   	push   %ebp
  1010ae:	89 e5                	mov    %esp,%ebp
  1010b0:	83 ec 28             	sub    $0x28,%esp
  1010b3:	c7 04 24 21 00 00 00 	movl   $0x21,(%esp)
  1010ba:	e8 6c 70 00 00       	call   10812b <inb>
  1010bf:	88 45 f7             	mov    %al,-0x9(%ebp)
  1010c2:	c7 04 24 a1 00 00 00 	movl   $0xa1,(%esp)
  1010c9:	e8 5d 70 00 00       	call   10812b <inb>
  1010ce:	88 45 f6             	mov    %al,-0xa(%ebp)
  1010d1:	c7 44 24 04 11 00 00 	movl   $0x11,0x4(%esp)
  1010d8:	00 
  1010d9:	c7 04 24 20 00 00 00 	movl   $0x20,(%esp)
  1010e0:	e8 23 70 00 00       	call   108108 <outb>
  1010e5:	e8 5d 70 00 00       	call   108147 <iodelay>
  1010ea:	c7 44 24 04 11 00 00 	movl   $0x11,0x4(%esp)
  1010f1:	00 
  1010f2:	c7 04 24 a0 00 00 00 	movl   $0xa0,(%esp)
  1010f9:	e8 0a 70 00 00       	call   108108 <outb>
  1010fe:	e8 44 70 00 00       	call   108147 <iodelay>
  101103:	8b 45 08             	mov    0x8(%ebp),%eax
  101106:	25 ff 00 00 00       	and    $0xff,%eax
  10110b:	89 44 24 04          	mov    %eax,0x4(%esp)
  10110f:	c7 04 24 21 00 00 00 	movl   $0x21,(%esp)
  101116:	e8 ed 6f 00 00       	call   108108 <outb>
  10111b:	e8 27 70 00 00       	call   108147 <iodelay>
  101120:	8b 45 0c             	mov    0xc(%ebp),%eax
  101123:	25 ff 00 00 00       	and    $0xff,%eax
  101128:	89 44 24 04          	mov    %eax,0x4(%esp)
  10112c:	c7 04 24 a1 00 00 00 	movl   $0xa1,(%esp)
  101133:	e8 d0 6f 00 00       	call   108108 <outb>
  101138:	e8 0a 70 00 00       	call   108147 <iodelay>
  10113d:	c7 44 24 04 02 00 00 	movl   $0x2,0x4(%esp)
  101144:	00 
  101145:	c7 04 24 21 00 00 00 	movl   $0x21,(%esp)
  10114c:	e8 b7 6f 00 00       	call   108108 <outb>
  101151:	e8 f1 6f 00 00       	call   108147 <iodelay>
  101156:	c7 44 24 04 04 00 00 	movl   $0x4,0x4(%esp)
  10115d:	00 
  10115e:	c7 04 24 a1 00 00 00 	movl   $0xa1,(%esp)
  101165:	e8 9e 6f 00 00       	call   108108 <outb>
  10116a:	e8 d8 6f 00 00       	call   108147 <iodelay>
  10116f:	c7 44 24 04 01 00 00 	movl   $0x1,0x4(%esp)
  101176:	00 
  101177:	c7 04 24 21 00 00 00 	movl   $0x21,(%esp)
  10117e:	e8 85 6f 00 00       	call   108108 <outb>
  101183:	e8 bf 6f 00 00       	call   108147 <iodelay>
  101188:	c7 44 24 04 01 00 00 	movl   $0x1,0x4(%esp)
  10118f:	00 
  101190:	c7 04 24 a1 00 00 00 	movl   $0xa1,(%esp)
  101197:	e8 6c 6f 00 00       	call   108108 <outb>
  10119c:	e8 a6 6f 00 00       	call   108147 <iodelay>
  1011a1:	8a 45 f7             	mov    -0x9(%ebp),%al
  1011a4:	25 ff 00 00 00       	and    $0xff,%eax
  1011a9:	89 44 24 04          	mov    %eax,0x4(%esp)
  1011ad:	c7 04 24 21 00 00 00 	movl   $0x21,(%esp)
  1011b4:	e8 4f 6f 00 00       	call   108108 <outb>
  1011b9:	8a 45 f6             	mov    -0xa(%ebp),%al
  1011bc:	25 ff 00 00 00       	and    $0xff,%eax
  1011c1:	89 44 24 04          	mov    %eax,0x4(%esp)
  1011c5:	c7 04 24 a1 00 00 00 	movl   $0xa1,(%esp)
  1011cc:	e8 37 6f 00 00       	call   108108 <outb>
  1011d1:	c9                   	leave  
  1011d2:	c3                   	ret    

001011d3 <pic_imr_set>:
  1011d3:	55                   	push   %ebp
  1011d4:	89 e5                	mov    %esp,%ebp
  1011d6:	53                   	push   %ebx
  1011d7:	83 ec 24             	sub    $0x24,%esp
  1011da:	8b 45 08             	mov    0x8(%ebp),%eax
  1011dd:	88 45 e4             	mov    %al,-0x1c(%ebp)
  1011e0:	80 7d e4 07          	cmpb   $0x7,-0x1c(%ebp)
  1011e4:	77 09                	ja     1011ef <pic_imr_set+0x1c>
  1011e6:	c7 45 f4 21 00 00 00 	movl   $0x21,-0xc(%ebp)
  1011ed:	eb 0b                	jmp    1011fa <pic_imr_set+0x27>
  1011ef:	c7 45 f4 a1 00 00 00 	movl   $0xa1,-0xc(%ebp)
  1011f6:	80 6d e4 08          	subb   $0x8,-0x1c(%ebp)
  1011fa:	8b 45 f4             	mov    -0xc(%ebp),%eax
  1011fd:	25 ff ff 00 00       	and    $0xffff,%eax
  101202:	89 04 24             	mov    %eax,(%esp)
  101205:	e8 21 6f 00 00       	call   10812b <inb>
  10120a:	88 c2                	mov    %al,%dl
  10120c:	8a 45 e4             	mov    -0x1c(%ebp),%al
  10120f:	25 ff 00 00 00       	and    $0xff,%eax
  101214:	bb 01 00 00 00       	mov    $0x1,%ebx
  101219:	88 c1                	mov    %al,%cl
  10121b:	d3 e3                	shl    %cl,%ebx
  10121d:	89 d8                	mov    %ebx,%eax
  10121f:	09 d0                	or     %edx,%eax
  101221:	88 45 f3             	mov    %al,-0xd(%ebp)
  101224:	8a 45 f3             	mov    -0xd(%ebp),%al
  101227:	31 d2                	xor    %edx,%edx
  101229:	88 c2                	mov    %al,%dl
  10122b:	8b 45 f4             	mov    -0xc(%ebp),%eax
  10122e:	25 ff ff 00 00       	and    $0xffff,%eax
  101233:	89 54 24 04          	mov    %edx,0x4(%esp)
  101237:	89 04 24             	mov    %eax,(%esp)
  10123a:	e8 c9 6e 00 00       	call   108108 <outb>
  10123f:	83 c4 24             	add    $0x24,%esp
  101242:	5b                   	pop    %ebx
  101243:	5d                   	pop    %ebp
  101244:	c3                   	ret    

00101245 <pic_imr_clear>:
  101245:	55                   	push   %ebp
  101246:	89 e5                	mov    %esp,%ebp
  101248:	53                   	push   %ebx
  101249:	83 ec 24             	sub    $0x24,%esp
  10124c:	8b 45 08             	mov    0x8(%ebp),%eax
  10124f:	88 45 e4             	mov    %al,-0x1c(%ebp)
  101252:	80 7d e4 07          	cmpb   $0x7,-0x1c(%ebp)
  101256:	77 09                	ja     101261 <pic_imr_clear+0x1c>
  101258:	c7 45 f4 21 00 00 00 	movl   $0x21,-0xc(%ebp)
  10125f:	eb 0b                	jmp    10126c <pic_imr_clear+0x27>
  101261:	c7 45 f4 a1 00 00 00 	movl   $0xa1,-0xc(%ebp)
  101268:	80 6d e4 08          	subb   $0x8,-0x1c(%ebp)
  10126c:	8b 45 f4             	mov    -0xc(%ebp),%eax
  10126f:	25 ff ff 00 00       	and    $0xffff,%eax
  101274:	89 04 24             	mov    %eax,(%esp)
  101277:	e8 af 6e 00 00       	call   10812b <inb>
  10127c:	88 c2                	mov    %al,%dl
  10127e:	8a 45 e4             	mov    -0x1c(%ebp),%al
  101281:	25 ff 00 00 00       	and    $0xff,%eax
  101286:	bb 01 00 00 00       	mov    $0x1,%ebx
  10128b:	88 c1                	mov    %al,%cl
  10128d:	d3 e3                	shl    %cl,%ebx
  10128f:	89 d8                	mov    %ebx,%eax
  101291:	f7 d0                	not    %eax
  101293:	21 d0                	and    %edx,%eax
  101295:	88 45 f3             	mov    %al,-0xd(%ebp)
  101298:	8a 45 f3             	mov    -0xd(%ebp),%al
  10129b:	31 d2                	xor    %edx,%edx
  10129d:	88 c2                	mov    %al,%dl
  10129f:	8b 45 f4             	mov    -0xc(%ebp),%eax
  1012a2:	25 ff ff 00 00       	and    $0xffff,%eax
  1012a7:	89 54 24 04          	mov    %edx,0x4(%esp)
  1012ab:	89 04 24             	mov    %eax,(%esp)
  1012ae:	e8 55 6e 00 00       	call   108108 <outb>
  1012b3:	83 c4 24             	add    $0x24,%esp
  1012b6:	5b                   	pop    %ebx
  1012b7:	5d                   	pop    %ebp
  1012b8:	c3                   	ret    

001012b9 <pic_get_reg>:
  1012b9:	55                   	push   %ebp
  1012ba:	89 e5                	mov    %esp,%ebp
  1012bc:	53                   	push   %ebx
  1012bd:	83 ec 14             	sub    $0x14,%esp
  1012c0:	8b 45 08             	mov    0x8(%ebp),%eax
  1012c3:	88 45 f4             	mov    %al,-0xc(%ebp)
  1012c6:	8a 45 f4             	mov    -0xc(%ebp),%al
  1012c9:	25 ff 00 00 00       	and    $0xff,%eax
  1012ce:	89 44 24 04          	mov    %eax,0x4(%esp)
  1012d2:	c7 04 24 20 00 00 00 	movl   $0x20,(%esp)
  1012d9:	e8 2a 6e 00 00       	call   108108 <outb>
  1012de:	8a 45 f4             	mov    -0xc(%ebp),%al
  1012e1:	25 ff 00 00 00       	and    $0xff,%eax
  1012e6:	89 44 24 04          	mov    %eax,0x4(%esp)
  1012ea:	c7 04 24 a0 00 00 00 	movl   $0xa0,(%esp)
  1012f1:	e8 12 6e 00 00       	call   108108 <outb>
  1012f6:	c7 04 24 20 00 00 00 	movl   $0x20,(%esp)
  1012fd:	e8 29 6e 00 00       	call   10812b <inb>
  101302:	31 db                	xor    %ebx,%ebx
  101304:	88 c3                	mov    %al,%bl
  101306:	c7 04 24 a0 00 00 00 	movl   $0xa0,(%esp)
  10130d:	e8 19 6e 00 00       	call   10812b <inb>
  101312:	25 ff 00 00 00       	and    $0xff,%eax
  101317:	c1 e0 08             	shl    $0x8,%eax
  10131a:	09 d8                	or     %ebx,%eax
  10131c:	83 c4 14             	add    $0x14,%esp
  10131f:	5b                   	pop    %ebx
  101320:	5d                   	pop    %ebp
  101321:	c3                   	ret    

00101322 <pic_get_isr>:
  101322:	55                   	push   %ebp
  101323:	89 e5                	mov    %esp,%ebp
  101325:	83 ec 18             	sub    $0x18,%esp
  101328:	c7 04 24 0a 00 00 00 	movl   $0xa,(%esp)
  10132f:	e8 85 ff ff ff       	call   1012b9 <pic_get_reg>
  101334:	c9                   	leave  
  101335:	c3                   	ret    

00101336 <pic_get_irr>:
  101336:	55                   	push   %ebp
  101337:	89 e5                	mov    %esp,%ebp
  101339:	83 ec 18             	sub    $0x18,%esp
  10133c:	c7 04 24 0b 00 00 00 	movl   $0xb,(%esp)
  101343:	e8 71 ff ff ff       	call   1012b9 <pic_get_reg>
  101348:	c9                   	leave  
  101349:	c3                   	ret    

0010134a <pic_eoi>:
  10134a:	55                   	push   %ebp
  10134b:	89 e5                	mov    %esp,%ebp
  10134d:	83 ec 18             	sub    $0x18,%esp
  101350:	8b 45 08             	mov    0x8(%ebp),%eax
  101353:	88 45 f4             	mov    %al,-0xc(%ebp)
  101356:	80 7d f4 07          	cmpb   $0x7,-0xc(%ebp)
  10135a:	76 14                	jbe    101370 <pic_eoi+0x26>
  10135c:	c7 44 24 04 20 00 00 	movl   $0x20,0x4(%esp)
  101363:	00 
  101364:	c7 04 24 a0 00 00 00 	movl   $0xa0,(%esp)
  10136b:	e8 98 6d 00 00       	call   108108 <outb>
  101370:	c7 44 24 04 20 00 00 	movl   $0x20,0x4(%esp)
  101377:	00 
  101378:	c7 04 24 20 00 00 00 	movl   $0x20,(%esp)
  10137f:	e8 84 6d 00 00       	call   108108 <outb>
  101384:	c9                   	leave  
  101385:	c3                   	ret    
  101386:	66 90                	xchg   %ax,%ax

00101388 <x86_init_irq>:
  101388:	55                   	push   %ebp
  101389:	89 e5                	mov    %esp,%ebp
  10138b:	83 ec 28             	sub    $0x28,%esp
  10138e:	8b 45 08             	mov    0x8(%ebp),%eax
  101391:	c7 00 10 00 00 00    	movl   $0x10,(%eax)
  101397:	e8 f0 fc ff ff       	call   10108c <pic_init>
  10139c:	89 45 f4             	mov    %eax,-0xc(%ebp)
  10139f:	83 7d f4 00          	cmpl   $0x0,-0xc(%ebp)
  1013a3:	74 08                	je     1013ad <x86_init_irq+0x25>
  1013a5:	8b 45 f4             	mov    -0xc(%ebp),%eax
  1013a8:	e9 45 01 00 00       	jmp    1014f2 <x86_init_irq+0x16a>
  1013ad:	c7 44 24 04 4c 82 10 	movl   $0x10824c,0x4(%esp)
  1013b4:	00 
  1013b5:	c7 04 24 20 00 00 00 	movl   $0x20,(%esp)
  1013bc:	e8 8a f6 ff ff       	call   100a4b <idt_irq_gate>
  1013c1:	c7 44 24 04 55 82 10 	movl   $0x108255,0x4(%esp)
  1013c8:	00 
  1013c9:	c7 04 24 21 00 00 00 	movl   $0x21,(%esp)
  1013d0:	e8 76 f6 ff ff       	call   100a4b <idt_irq_gate>
  1013d5:	c7 44 24 04 5e 82 10 	movl   $0x10825e,0x4(%esp)
  1013dc:	00 
  1013dd:	c7 04 24 22 00 00 00 	movl   $0x22,(%esp)
  1013e4:	e8 62 f6 ff ff       	call   100a4b <idt_irq_gate>
  1013e9:	c7 44 24 04 67 82 10 	movl   $0x108267,0x4(%esp)
  1013f0:	00 
  1013f1:	c7 04 24 23 00 00 00 	movl   $0x23,(%esp)
  1013f8:	e8 4e f6 ff ff       	call   100a4b <idt_irq_gate>
  1013fd:	c7 44 24 04 70 82 10 	movl   $0x108270,0x4(%esp)
  101404:	00 
  101405:	c7 04 24 24 00 00 00 	movl   $0x24,(%esp)
  10140c:	e8 3a f6 ff ff       	call   100a4b <idt_irq_gate>
  101411:	c7 44 24 04 79 82 10 	movl   $0x108279,0x4(%esp)
  101418:	00 
  101419:	c7 04 24 25 00 00 00 	movl   $0x25,(%esp)
  101420:	e8 26 f6 ff ff       	call   100a4b <idt_irq_gate>
  101425:	c7 44 24 04 82 82 10 	movl   $0x108282,0x4(%esp)
  10142c:	00 
  10142d:	c7 04 24 26 00 00 00 	movl   $0x26,(%esp)
  101434:	e8 12 f6 ff ff       	call   100a4b <idt_irq_gate>
  101439:	c7 44 24 04 8b 82 10 	movl   $0x10828b,0x4(%esp)
  101440:	00 
  101441:	c7 04 24 27 00 00 00 	movl   $0x27,(%esp)
  101448:	e8 fe f5 ff ff       	call   100a4b <idt_irq_gate>
  10144d:	c7 44 24 04 94 82 10 	movl   $0x108294,0x4(%esp)
  101454:	00 
  101455:	c7 04 24 28 00 00 00 	movl   $0x28,(%esp)
  10145c:	e8 ea f5 ff ff       	call   100a4b <idt_irq_gate>
  101461:	c7 44 24 04 9d 82 10 	movl   $0x10829d,0x4(%esp)
  101468:	00 
  101469:	c7 04 24 29 00 00 00 	movl   $0x29,(%esp)
  101470:	e8 d6 f5 ff ff       	call   100a4b <idt_irq_gate>
  101475:	c7 44 24 04 a6 82 10 	movl   $0x1082a6,0x4(%esp)
  10147c:	00 
  10147d:	c7 04 24 2a 00 00 00 	movl   $0x2a,(%esp)
  101484:	e8 c2 f5 ff ff       	call   100a4b <idt_irq_gate>
  101489:	c7 44 24 04 af 82 10 	movl   $0x1082af,0x4(%esp)
  101490:	00 
  101491:	c7 04 24 2b 00 00 00 	movl   $0x2b,(%esp)
  101498:	e8 ae f5 ff ff       	call   100a4b <idt_irq_gate>
  10149d:	c7 44 24 04 b8 82 10 	movl   $0x1082b8,0x4(%esp)
  1014a4:	00 
  1014a5:	c7 04 24 2c 00 00 00 	movl   $0x2c,(%esp)
  1014ac:	e8 9a f5 ff ff       	call   100a4b <idt_irq_gate>
  1014b1:	c7 44 24 04 c1 82 10 	movl   $0x1082c1,0x4(%esp)
  1014b8:	00 
  1014b9:	c7 04 24 2d 00 00 00 	movl   $0x2d,(%esp)
  1014c0:	e8 86 f5 ff ff       	call   100a4b <idt_irq_gate>
  1014c5:	c7 44 24 04 ca 82 10 	movl   $0x1082ca,0x4(%esp)
  1014cc:	00 
  1014cd:	c7 04 24 2e 00 00 00 	movl   $0x2e,(%esp)
  1014d4:	e8 72 f5 ff ff       	call   100a4b <idt_irq_gate>
  1014d9:	c7 44 24 04 d3 82 10 	movl   $0x1082d3,0x4(%esp)
  1014e0:	00 
  1014e1:	c7 04 24 2f 00 00 00 	movl   $0x2f,(%esp)
  1014e8:	e8 5e f5 ff ff       	call   100a4b <idt_irq_gate>
  1014ed:	b8 00 00 00 00       	mov    $0x0,%eax
  1014f2:	c9                   	leave  
  1014f3:	c3                   	ret    

001014f4 <x86_generate_irq>:
  1014f4:	55                   	push   %ebp
  1014f5:	89 e5                	mov    %esp,%ebp
  1014f7:	83 ec 18             	sub    $0x18,%esp
  1014fa:	83 7d 08 07          	cmpl   $0x7,0x8(%ebp)
  1014fe:	7f 15                	jg     101515 <x86_generate_irq+0x21>
  101500:	8b 45 08             	mov    0x8(%ebp),%eax
  101503:	83 c0 20             	add    $0x20,%eax
  101506:	25 ff 00 00 00       	and    $0xff,%eax
  10150b:	89 04 24             	mov    %eax,(%esp)
  10150e:	e8 59 6c 00 00       	call   10816c <__int>
  101513:	eb 19                	jmp    10152e <x86_generate_irq+0x3a>
  101515:	83 7d 08 0f          	cmpl   $0xf,0x8(%ebp)
  101519:	7f 13                	jg     10152e <x86_generate_irq+0x3a>
  10151b:	8b 45 08             	mov    0x8(%ebp),%eax
  10151e:	83 c0 28             	add    $0x28,%eax
  101521:	25 ff 00 00 00       	and    $0xff,%eax
  101526:	89 04 24             	mov    %eax,(%esp)
  101529:	e8 3e 6c 00 00       	call   10816c <__int>
  10152e:	c9                   	leave  
  10152f:	c3                   	ret    

00101530 <x86_handle_irq>:
  101530:	55                   	push   %ebp
  101531:	89 e5                	mov    %esp,%ebp
  101533:	83 ec 18             	sub    $0x18,%esp
  101536:	83 7d 08 00          	cmpl   $0x0,0x8(%ebp)
  10153a:	78 06                	js     101542 <x86_handle_irq+0x12>
  10153c:	83 7d 08 0f          	cmpl   $0xf,0x8(%ebp)
  101540:	7e 24                	jle    101566 <x86_handle_irq+0x36>
  101542:	c7 44 24 0c 94 95 10 	movl   $0x109594,0xc(%esp)
  101549:	00 
  10154a:	c7 44 24 08 4e 00 00 	movl   $0x4e,0x8(%esp)
  101551:	00 
  101552:	c7 44 24 04 ac 95 10 	movl   $0x1095ac,0x4(%esp)
  101559:	00 
  10155a:	c7 04 24 dd 95 10 00 	movl   $0x1095dd,(%esp)
  101561:	e8 7e 44 00 00       	call   1059e4 <panic>
  101566:	83 7d 08 01          	cmpl   $0x1,0x8(%ebp)
  10156a:	75 0c                	jne    101578 <x86_handle_irq+0x48>
  10156c:	c7 04 24 60 00 00 00 	movl   $0x60,(%esp)
  101573:	e8 b3 6b 00 00       	call   10812b <inb>
  101578:	8b 45 08             	mov    0x8(%ebp),%eax
  10157b:	89 04 24             	mov    %eax,(%esp)
  10157e:	e8 57 3f 00 00       	call   1054da <handle_irq>
  101583:	c9                   	leave  
  101584:	c3                   	ret    

00101585 <x86_acknowledge_irq>:
  101585:	55                   	push   %ebp
  101586:	89 e5                	mov    %esp,%ebp
  101588:	83 ec 18             	sub    $0x18,%esp
  10158b:	8b 45 08             	mov    0x8(%ebp),%eax
  10158e:	25 ff 00 00 00       	and    $0xff,%eax
  101593:	89 04 24             	mov    %eax,(%esp)
  101596:	e8 af fd ff ff       	call   10134a <pic_eoi>
  10159b:	c9                   	leave  
  10159c:	c3                   	ret    

0010159d <x86_enable_irqs>:
  10159d:	55                   	push   %ebp
  10159e:	89 e5                	mov    %esp,%ebp
  1015a0:	83 ec 08             	sub    $0x8,%esp
  1015a3:	e8 13 6c 00 00       	call   1081bb <__enable_interrupts>
  1015a8:	c9                   	leave  
  1015a9:	c3                   	ret    

001015aa <x86_disable_irqs>:
  1015aa:	55                   	push   %ebp
  1015ab:	89 e5                	mov    %esp,%ebp
  1015ad:	83 ec 08             	sub    $0x8,%esp
  1015b0:	e8 08 6c 00 00       	call   1081bd <__disable_interrupts>
  1015b5:	c9                   	leave  
  1015b6:	c3                   	ret    
  1015b7:	90                   	nop

001015b8 <mb_entry>:
  1015b8:	55                   	push   %ebp
  1015b9:	89 e5                	mov    %esp,%ebp
  1015bb:	83 ec 18             	sub    $0x18,%esp
  1015be:	e8 21 33 00 00       	call   1048e4 <vga_init>
  1015c3:	85 c0                	test   %eax,%eax
  1015c5:	74 0c                	je     1015d3 <mb_entry+0x1b>
  1015c7:	c7 04 24 fc 95 10 00 	movl   $0x1095fc,(%esp)
  1015ce:	e8 11 44 00 00       	call   1059e4 <panic>
  1015d3:	c7 04 24 09 49 10 00 	movl   $0x104909,(%esp)
  1015da:	e8 75 41 00 00       	call   105754 <kputchar_set>
  1015df:	81 7d 08 02 b0 ad 2b 	cmpl   $0x2badb002,0x8(%ebp)
  1015e6:	74 1b                	je     101603 <mb_entry+0x4b>
  1015e8:	8b 45 08             	mov    0x8(%ebp),%eax
  1015eb:	89 44 24 08          	mov    %eax,0x8(%esp)
  1015ef:	c7 44 24 04 02 b0 ad 	movl   $0x2badb002,0x4(%esp)
  1015f6:	2b 
  1015f7:	c7 04 24 24 96 10 00 	movl   $0x109624,(%esp)
  1015fe:	e8 e1 43 00 00       	call   1059e4 <panic>
  101603:	c7 04 24 6c 16 10 00 	movl   $0x10166c,(%esp)
  10160a:	e8 ce ef ff ff       	call   1005dd <x86_exn_init>
  10160f:	85 c0                	test   %eax,%eax
  101611:	74 0c                	je     10161f <mb_entry+0x67>
  101613:	c7 04 24 64 96 10 00 	movl   $0x109664,(%esp)
  10161a:	e8 c5 43 00 00       	call   1059e4 <panic>
  10161f:	8b 45 0c             	mov    0xc(%ebp),%eax
  101622:	8b 40 08             	mov    0x8(%eax),%eax
  101625:	05 00 04 00 00       	add    $0x400,%eax
  10162a:	c1 e0 0a             	shl    $0xa,%eax
  10162d:	c7 44 24 0c f0 29 21 	movl   $0x2129f0,0xc(%esp)
  101634:	00 
  101635:	c7 44 24 08 00 00 10 	movl   $0x100000,0x8(%esp)
  10163c:	00 
  10163d:	c7 44 24 04 00 10 00 	movl   $0x1000,0x4(%esp)
  101644:	00 
  101645:	89 04 24             	mov    %eax,(%esp)
  101648:	e8 eb 60 00 00       	call   107738 <pmem_bootstrap>
  10164d:	85 c0                	test   %eax,%eax
  10164f:	74 0c                	je     10165d <mb_entry+0xa5>
  101651:	c7 04 24 90 96 10 00 	movl   $0x109690,(%esp)
  101658:	e8 87 43 00 00       	call   1059e4 <panic>
  10165d:	e8 60 f1 ff ff       	call   1007c2 <x86_disable_fpu>
  101662:	e8 85 38 00 00       	call   104eec <kernel_main>
  101667:	c9                   	leave  
  101668:	c3                   	ret    
  101669:	66 90                	xchg   %ax,%ax
  10166b:	90                   	nop

0010166c <mb_exn_handler>:
  10166c:	55                   	push   %ebp
  10166d:	89 e5                	mov    %esp,%ebp
  10166f:	53                   	push   %ebx
  101670:	83 ec 34             	sub    $0x34,%esp
  101673:	8b 45 08             	mov    0x8(%ebp),%eax
  101676:	83 c0 48             	add    $0x48,%eax
  101679:	89 45 f4             	mov    %eax,-0xc(%ebp)
  10167c:	8b 45 08             	mov    0x8(%ebp),%eax
  10167f:	83 c0 24             	add    $0x24,%eax
  101682:	89 45 f0             	mov    %eax,-0x10(%ebp)
  101685:	8b 45 08             	mov    0x8(%ebp),%eax
  101688:	8b 10                	mov    (%eax),%edx
  10168a:	89 d0                	mov    %edx,%eax
  10168c:	c1 e0 05             	shl    $0x5,%eax
  10168f:	01 d0                	add    %edx,%eax
  101691:	01 c0                	add    %eax,%eax
  101693:	01 d0                	add    %edx,%eax
  101695:	c1 e0 02             	shl    $0x2,%eax
  101698:	05 00 d0 10 00       	add    $0x10d000,%eax
  10169d:	89 45 ec             	mov    %eax,-0x14(%ebp)
  1016a0:	c7 44 24 08 b8 96 10 	movl   $0x1096b8,0x8(%esp)
  1016a7:	00 
  1016a8:	c7 44 24 04 fd 96 10 	movl   $0x1096fd,0x4(%esp)
  1016af:	00 
  1016b0:	c7 04 24 02 00 00 00 	movl   $0x2,(%esp)
  1016b7:	e8 42 44 00 00       	call   105afe <log>
  1016bc:	8b 45 ec             	mov    -0x14(%ebp),%eax
  1016bf:	8d 98 87 00 00 00    	lea    0x87(%eax),%ebx
  1016c5:	8b 45 ec             	mov    -0x14(%ebp),%eax
  1016c8:	8d 48 06             	lea    0x6(%eax),%ecx
  1016cb:	8b 45 ec             	mov    -0x14(%ebp),%eax
  1016ce:	8d 50 01             	lea    0x1(%eax),%edx
  1016d1:	8b 45 ec             	mov    -0x14(%ebp),%eax
  1016d4:	8a 00                	mov    (%eax),%al
  1016d6:	25 ff 00 00 00       	and    $0xff,%eax
  1016db:	89 5c 24 18          	mov    %ebx,0x18(%esp)
  1016df:	89 4c 24 14          	mov    %ecx,0x14(%esp)
  1016e3:	89 54 24 10          	mov    %edx,0x10(%esp)
  1016e7:	89 44 24 0c          	mov    %eax,0xc(%esp)
  1016eb:	c7 44 24 08 05 97 10 	movl   $0x109705,0x8(%esp)
  1016f2:	00 
  1016f3:	c7 44 24 04 fd 96 10 	movl   $0x1096fd,0x4(%esp)
  1016fa:	00 
  1016fb:	c7 04 24 02 00 00 00 	movl   $0x2,(%esp)
  101702:	e8 f7 43 00 00       	call   105afe <log>
  101707:	c7 44 24 08 b8 96 10 	movl   $0x1096b8,0x8(%esp)
  10170e:	00 
  10170f:	c7 44 24 04 fd 96 10 	movl   $0x1096fd,0x4(%esp)
  101716:	00 
  101717:	c7 04 24 02 00 00 00 	movl   $0x2,(%esp)
  10171e:	e8 db 43 00 00       	call   105afe <log>
  101723:	8b 45 f4             	mov    -0xc(%ebp),%eax
  101726:	8b 00                	mov    (%eax),%eax
  101728:	89 44 24 0c          	mov    %eax,0xc(%esp)
  10172c:	c7 44 24 08 1b 97 10 	movl   $0x10971b,0x8(%esp)
  101733:	00 
  101734:	c7 44 24 04 fd 96 10 	movl   $0x1096fd,0x4(%esp)
  10173b:	00 
  10173c:	c7 04 24 02 00 00 00 	movl   $0x2,(%esp)
  101743:	e8 b6 43 00 00       	call   105afe <log>
  101748:	8b 45 f4             	mov    -0xc(%ebp),%eax
  10174b:	8b 40 0c             	mov    0xc(%eax),%eax
  10174e:	89 44 24 0c          	mov    %eax,0xc(%esp)
  101752:	c7 44 24 08 28 97 10 	movl   $0x109728,0x8(%esp)
  101759:	00 
  10175a:	c7 44 24 04 fd 96 10 	movl   $0x1096fd,0x4(%esp)
  101761:	00 
  101762:	c7 04 24 02 00 00 00 	movl   $0x2,(%esp)
  101769:	e8 90 43 00 00       	call   105afe <log>
  10176e:	8b 45 f0             	mov    -0x10(%ebp),%eax
  101771:	8b 40 08             	mov    0x8(%eax),%eax
  101774:	89 44 24 0c          	mov    %eax,0xc(%esp)
  101778:	c7 44 24 08 35 97 10 	movl   $0x109735,0x8(%esp)
  10177f:	00 
  101780:	c7 44 24 04 fd 96 10 	movl   $0x1096fd,0x4(%esp)
  101787:	00 
  101788:	c7 04 24 02 00 00 00 	movl   $0x2,(%esp)
  10178f:	e8 6a 43 00 00       	call   105afe <log>
  101794:	c7 44 24 08 42 97 10 	movl   $0x109742,0x8(%esp)
  10179b:	00 
  10179c:	c7 44 24 04 fd 96 10 	movl   $0x1096fd,0x4(%esp)
  1017a3:	00 
  1017a4:	c7 04 24 02 00 00 00 	movl   $0x2,(%esp)
  1017ab:	e8 4e 43 00 00       	call   105afe <log>
  1017b0:	8b 45 f0             	mov    -0x10(%ebp),%eax
  1017b3:	8b 50 04             	mov    0x4(%eax),%edx
  1017b6:	8b 45 f0             	mov    -0x10(%ebp),%eax
  1017b9:	8b 00                	mov    (%eax),%eax
  1017bb:	89 54 24 10          	mov    %edx,0x10(%esp)
  1017bf:	89 44 24 0c          	mov    %eax,0xc(%esp)
  1017c3:	c7 44 24 08 44 97 10 	movl   $0x109744,0x8(%esp)
  1017ca:	00 
  1017cb:	c7 44 24 04 fd 96 10 	movl   $0x1096fd,0x4(%esp)
  1017d2:	00 
  1017d3:	c7 04 24 02 00 00 00 	movl   $0x2,(%esp)
  1017da:	e8 1f 43 00 00       	call   105afe <log>
  1017df:	8b 45 f0             	mov    -0x10(%ebp),%eax
  1017e2:	8b 50 10             	mov    0x10(%eax),%edx
  1017e5:	8b 45 f0             	mov    -0x10(%ebp),%eax
  1017e8:	8b 40 1c             	mov    0x1c(%eax),%eax
  1017eb:	89 54 24 10          	mov    %edx,0x10(%esp)
  1017ef:	89 44 24 0c          	mov    %eax,0xc(%esp)
  1017f3:	c7 44 24 08 5d 97 10 	movl   $0x10975d,0x8(%esp)
  1017fa:	00 
  1017fb:	c7 44 24 04 fd 96 10 	movl   $0x1096fd,0x4(%esp)
  101802:	00 
  101803:	c7 04 24 02 00 00 00 	movl   $0x2,(%esp)
  10180a:	e8 ef 42 00 00       	call   105afe <log>
  10180f:	8b 45 f0             	mov    -0x10(%ebp),%eax
  101812:	8b 50 14             	mov    0x14(%eax),%edx
  101815:	8b 45 f0             	mov    -0x10(%ebp),%eax
  101818:	8b 40 18             	mov    0x18(%eax),%eax
  10181b:	89 54 24 10          	mov    %edx,0x10(%esp)
  10181f:	89 44 24 0c          	mov    %eax,0xc(%esp)
  101823:	c7 44 24 08 76 97 10 	movl   $0x109776,0x8(%esp)
  10182a:	00 
  10182b:	c7 44 24 04 fd 96 10 	movl   $0x1096fd,0x4(%esp)
  101832:	00 
  101833:	c7 04 24 02 00 00 00 	movl   $0x2,(%esp)
  10183a:	e8 bf 42 00 00       	call   105afe <log>
  10183f:	c7 44 24 08 42 97 10 	movl   $0x109742,0x8(%esp)
  101846:	00 
  101847:	c7 44 24 04 fd 96 10 	movl   $0x1096fd,0x4(%esp)
  10184e:	00 
  10184f:	c7 04 24 02 00 00 00 	movl   $0x2,(%esp)
  101856:	e8 a3 42 00 00       	call   105afe <log>
  10185b:	8b 45 08             	mov    0x8(%ebp),%eax
  10185e:	8b 40 04             	mov    0x4(%eax),%eax
  101861:	89 44 24 0c          	mov    %eax,0xc(%esp)
  101865:	c7 44 24 08 8f 97 10 	movl   $0x10978f,0x8(%esp)
  10186c:	00 
  10186d:	c7 44 24 04 fd 96 10 	movl   $0x1096fd,0x4(%esp)
  101874:	00 
  101875:	c7 04 24 02 00 00 00 	movl   $0x2,(%esp)
  10187c:	e8 7d 42 00 00       	call   105afe <log>
  101881:	8b 45 08             	mov    0x8(%ebp),%eax
  101884:	8b 40 08             	mov    0x8(%eax),%eax
  101887:	89 44 24 0c          	mov    %eax,0xc(%esp)
  10188b:	c7 44 24 08 9c 97 10 	movl   $0x10979c,0x8(%esp)
  101892:	00 
  101893:	c7 44 24 04 fd 96 10 	movl   $0x1096fd,0x4(%esp)
  10189a:	00 
  10189b:	c7 04 24 02 00 00 00 	movl   $0x2,(%esp)
  1018a2:	e8 57 42 00 00       	call   105afe <log>
  1018a7:	8b 45 08             	mov    0x8(%ebp),%eax
  1018aa:	8b 40 0c             	mov    0xc(%eax),%eax
  1018ad:	89 44 24 0c          	mov    %eax,0xc(%esp)
  1018b1:	c7 44 24 08 a9 97 10 	movl   $0x1097a9,0x8(%esp)
  1018b8:	00 
  1018b9:	c7 44 24 04 fd 96 10 	movl   $0x1096fd,0x4(%esp)
  1018c0:	00 
  1018c1:	c7 04 24 02 00 00 00 	movl   $0x2,(%esp)
  1018c8:	e8 31 42 00 00       	call   105afe <log>
  1018cd:	8b 45 08             	mov    0x8(%ebp),%eax
  1018d0:	8b 40 10             	mov    0x10(%eax),%eax
  1018d3:	89 44 24 0c          	mov    %eax,0xc(%esp)
  1018d7:	c7 44 24 08 b6 97 10 	movl   $0x1097b6,0x8(%esp)
  1018de:	00 
  1018df:	c7 44 24 04 fd 96 10 	movl   $0x1096fd,0x4(%esp)
  1018e6:	00 
  1018e7:	c7 04 24 02 00 00 00 	movl   $0x2,(%esp)
  1018ee:	e8 0b 42 00 00       	call   105afe <log>
  1018f3:	c7 44 24 08 42 97 10 	movl   $0x109742,0x8(%esp)
  1018fa:	00 
  1018fb:	c7 44 24 04 fd 96 10 	movl   $0x1096fd,0x4(%esp)
  101902:	00 
  101903:	c7 04 24 02 00 00 00 	movl   $0x2,(%esp)
  10190a:	e8 ef 41 00 00       	call   105afe <log>
  10190f:	8b 45 08             	mov    0x8(%ebp),%eax
  101912:	8b 40 14             	mov    0x14(%eax),%eax
  101915:	89 44 24 0c          	mov    %eax,0xc(%esp)
  101919:	c7 44 24 08 c3 97 10 	movl   $0x1097c3,0x8(%esp)
  101920:	00 
  101921:	c7 44 24 04 fd 96 10 	movl   $0x1096fd,0x4(%esp)
  101928:	00 
  101929:	c7 04 24 02 00 00 00 	movl   $0x2,(%esp)
  101930:	e8 c9 41 00 00       	call   105afe <log>
  101935:	8b 45 08             	mov    0x8(%ebp),%eax
  101938:	8b 40 18             	mov    0x18(%eax),%eax
  10193b:	89 44 24 0c          	mov    %eax,0xc(%esp)
  10193f:	c7 44 24 08 cf 97 10 	movl   $0x1097cf,0x8(%esp)
  101946:	00 
  101947:	c7 44 24 04 fd 96 10 	movl   $0x1096fd,0x4(%esp)
  10194e:	00 
  10194f:	c7 04 24 02 00 00 00 	movl   $0x2,(%esp)
  101956:	e8 a3 41 00 00       	call   105afe <log>
  10195b:	8b 45 08             	mov    0x8(%ebp),%eax
  10195e:	8b 40 1c             	mov    0x1c(%eax),%eax
  101961:	89 44 24 0c          	mov    %eax,0xc(%esp)
  101965:	c7 44 24 08 db 97 10 	movl   $0x1097db,0x8(%esp)
  10196c:	00 
  10196d:	c7 44 24 04 fd 96 10 	movl   $0x1096fd,0x4(%esp)
  101974:	00 
  101975:	c7 04 24 02 00 00 00 	movl   $0x2,(%esp)
  10197c:	e8 7d 41 00 00       	call   105afe <log>
  101981:	8b 45 08             	mov    0x8(%ebp),%eax
  101984:	8b 40 20             	mov    0x20(%eax),%eax
  101987:	89 44 24 0c          	mov    %eax,0xc(%esp)
  10198b:	c7 44 24 08 e7 97 10 	movl   $0x1097e7,0x8(%esp)
  101992:	00 
  101993:	c7 44 24 04 fd 96 10 	movl   $0x1096fd,0x4(%esp)
  10199a:	00 
  10199b:	c7 04 24 02 00 00 00 	movl   $0x2,(%esp)
  1019a2:	e8 57 41 00 00       	call   105afe <log>
  1019a7:	c7 44 24 08 42 97 10 	movl   $0x109742,0x8(%esp)
  1019ae:	00 
  1019af:	c7 44 24 04 fd 96 10 	movl   $0x1096fd,0x4(%esp)
  1019b6:	00 
  1019b7:	c7 04 24 02 00 00 00 	movl   $0x2,(%esp)
  1019be:	e8 3b 41 00 00       	call   105afe <log>
  1019c3:	8b 45 08             	mov    0x8(%ebp),%eax
  1019c6:	8b 40 44             	mov    0x44(%eax),%eax
  1019c9:	89 44 24 0c          	mov    %eax,0xc(%esp)
  1019cd:	c7 44 24 08 f3 97 10 	movl   $0x1097f3,0x8(%esp)
  1019d4:	00 
  1019d5:	c7 44 24 04 fd 96 10 	movl   $0x1096fd,0x4(%esp)
  1019dc:	00 
  1019dd:	c7 04 24 02 00 00 00 	movl   $0x2,(%esp)
  1019e4:	e8 15 41 00 00       	call   105afe <log>
  1019e9:	c7 44 24 08 b8 96 10 	movl   $0x1096b8,0x8(%esp)
  1019f0:	00 
  1019f1:	c7 44 24 04 fd 96 10 	movl   $0x1096fd,0x4(%esp)
  1019f8:	00 
  1019f9:	c7 04 24 02 00 00 00 	movl   $0x2,(%esp)
  101a00:	e8 f9 40 00 00       	call   105afe <log>
  101a05:	8b 45 ec             	mov    -0x14(%ebp),%eax
  101a08:	8a 00                	mov    (%eax),%al
  101a0a:	25 ff 00 00 00       	and    $0xff,%eax
  101a0f:	89 44 24 04          	mov    %eax,0x4(%esp)
  101a13:	c7 04 24 00 98 10 00 	movl   $0x109800,(%esp)
  101a1a:	e8 c5 3f 00 00       	call   1059e4 <panic>
  101a1f:	83 c4 34             	add    $0x34,%esp
  101a22:	5b                   	pop    %ebx
  101a23:	5d                   	pop    %ebp
  101a24:	c3                   	ret    

00101a25 <mb_dump>:
  101a25:	55                   	push   %ebp
  101a26:	89 e5                	mov    %esp,%ebp
  101a28:	57                   	push   %edi
  101a29:	56                   	push   %esi
  101a2a:	53                   	push   %ebx
  101a2b:	83 ec 4c             	sub    $0x4c,%esp
  101a2e:	8b 45 0c             	mov    0xc(%ebp),%eax
  101a31:	8b 00                	mov    (%eax),%eax
  101a33:	89 45 e0             	mov    %eax,-0x20(%ebp)
  101a36:	8b 45 0c             	mov    0xc(%ebp),%eax
  101a39:	89 44 24 04          	mov    %eax,0x4(%esp)
  101a3d:	c7 04 24 24 98 10 00 	movl   $0x109824,(%esp)
  101a44:	8b 45 08             	mov    0x8(%ebp),%eax
  101a47:	ff d0                	call   *%eax
  101a49:	c7 04 24 44 98 10 00 	movl   $0x109844,(%esp)
  101a50:	8b 45 08             	mov    0x8(%ebp),%eax
  101a53:	ff d0                	call   *%eax
  101a55:	8b 45 e0             	mov    -0x20(%ebp),%eax
  101a58:	83 e0 01             	and    $0x1,%eax
  101a5b:	89 44 24 08          	mov    %eax,0x8(%esp)
  101a5f:	c7 44 24 04 00 00 00 	movl   $0x0,0x4(%esp)
  101a66:	00 
  101a67:	c7 04 24 8b 98 10 00 	movl   $0x10988b,(%esp)
  101a6e:	8b 45 08             	mov    0x8(%ebp),%eax
  101a71:	ff d0                	call   *%eax
  101a73:	8b 45 e0             	mov    -0x20(%ebp),%eax
  101a76:	83 e0 01             	and    $0x1,%eax
  101a79:	85 c0                	test   %eax,%eax
  101a7b:	74 32                	je     101aaf <mb_dump+0x8a>
  101a7d:	8b 45 0c             	mov    0xc(%ebp),%eax
  101a80:	8b 40 04             	mov    0x4(%eax),%eax
  101a83:	c1 e0 0a             	shl    $0xa,%eax
  101a86:	89 44 24 04          	mov    %eax,0x4(%esp)
  101a8a:	c7 04 24 9c 98 10 00 	movl   $0x10989c,(%esp)
  101a91:	8b 45 08             	mov    0x8(%ebp),%eax
  101a94:	ff d0                	call   *%eax
  101a96:	8b 45 0c             	mov    0xc(%ebp),%eax
  101a99:	8b 40 08             	mov    0x8(%eax),%eax
  101a9c:	c1 e0 0a             	shl    $0xa,%eax
  101a9f:	89 44 24 04          	mov    %eax,0x4(%esp)
  101aa3:	c7 04 24 b2 98 10 00 	movl   $0x1098b2,(%esp)
  101aaa:	8b 45 08             	mov    0x8(%ebp),%eax
  101aad:	ff d0                	call   *%eax
  101aaf:	8b 45 e0             	mov    -0x20(%ebp),%eax
  101ab2:	d1 e8                	shr    %eax
  101ab4:	83 e0 01             	and    $0x1,%eax
  101ab7:	89 44 24 08          	mov    %eax,0x8(%esp)
  101abb:	c7 44 24 04 01 00 00 	movl   $0x1,0x4(%esp)
  101ac2:	00 
  101ac3:	c7 04 24 8b 98 10 00 	movl   $0x10988b,(%esp)
  101aca:	8b 45 08             	mov    0x8(%ebp),%eax
  101acd:	ff d0                	call   *%eax
  101acf:	8b 45 e0             	mov    -0x20(%ebp),%eax
  101ad2:	d1 e8                	shr    %eax
  101ad4:	83 e0 01             	and    $0x1,%eax
  101ad7:	85 c0                	test   %eax,%eax
  101ad9:	74 16                	je     101af1 <mb_dump+0xcc>
  101adb:	8b 45 0c             	mov    0xc(%ebp),%eax
  101ade:	8b 40 0c             	mov    0xc(%eax),%eax
  101ae1:	89 44 24 04          	mov    %eax,0x4(%esp)
  101ae5:	c7 04 24 c8 98 10 00 	movl   $0x1098c8,(%esp)
  101aec:	8b 45 08             	mov    0x8(%ebp),%eax
  101aef:	ff d0                	call   *%eax
  101af1:	8b 45 e0             	mov    -0x20(%ebp),%eax
  101af4:	c1 e8 02             	shr    $0x2,%eax
  101af7:	83 e0 01             	and    $0x1,%eax
  101afa:	89 44 24 08          	mov    %eax,0x8(%esp)
  101afe:	c7 44 24 04 02 00 00 	movl   $0x2,0x4(%esp)
  101b05:	00 
  101b06:	c7 04 24 8b 98 10 00 	movl   $0x10988b,(%esp)
  101b0d:	8b 45 08             	mov    0x8(%ebp),%eax
  101b10:	ff d0                	call   *%eax
  101b12:	8b 45 e0             	mov    -0x20(%ebp),%eax
  101b15:	c1 e8 02             	shr    $0x2,%eax
  101b18:	83 e0 01             	and    $0x1,%eax
  101b1b:	85 c0                	test   %eax,%eax
  101b1d:	74 16                	je     101b35 <mb_dump+0x110>
  101b1f:	8b 45 0c             	mov    0xc(%ebp),%eax
  101b22:	8b 40 10             	mov    0x10(%eax),%eax
  101b25:	89 44 24 04          	mov    %eax,0x4(%esp)
  101b29:	c7 04 24 e0 98 10 00 	movl   $0x1098e0,(%esp)
  101b30:	8b 45 08             	mov    0x8(%ebp),%eax
  101b33:	ff d0                	call   *%eax
  101b35:	8b 45 e0             	mov    -0x20(%ebp),%eax
  101b38:	c1 e8 03             	shr    $0x3,%eax
  101b3b:	83 e0 01             	and    $0x1,%eax
  101b3e:	89 44 24 08          	mov    %eax,0x8(%esp)
  101b42:	c7 44 24 04 03 00 00 	movl   $0x3,0x4(%esp)
  101b49:	00 
  101b4a:	c7 04 24 8b 98 10 00 	movl   $0x10988b,(%esp)
  101b51:	8b 45 08             	mov    0x8(%ebp),%eax
  101b54:	ff d0                	call   *%eax
  101b56:	8b 45 e0             	mov    -0x20(%ebp),%eax
  101b59:	c1 e8 03             	shr    $0x3,%eax
  101b5c:	83 e0 01             	and    $0x1,%eax
  101b5f:	85 c0                	test   %eax,%eax
  101b61:	74 2c                	je     101b8f <mb_dump+0x16a>
  101b63:	8b 45 0c             	mov    0xc(%ebp),%eax
  101b66:	8b 40 14             	mov    0x14(%eax),%eax
  101b69:	89 44 24 04          	mov    %eax,0x4(%esp)
  101b6d:	c7 04 24 f1 98 10 00 	movl   $0x1098f1,(%esp)
  101b74:	8b 45 08             	mov    0x8(%ebp),%eax
  101b77:	ff d0                	call   *%eax
  101b79:	8b 45 0c             	mov    0xc(%ebp),%eax
  101b7c:	8b 40 18             	mov    0x18(%eax),%eax
  101b7f:	89 44 24 04          	mov    %eax,0x4(%esp)
  101b83:	c7 04 24 04 99 10 00 	movl   $0x109904,(%esp)
  101b8a:	8b 45 08             	mov    0x8(%ebp),%eax
  101b8d:	ff d0                	call   *%eax
  101b8f:	8b 45 e0             	mov    -0x20(%ebp),%eax
  101b92:	c1 e8 04             	shr    $0x4,%eax
  101b95:	83 e0 01             	and    $0x1,%eax
  101b98:	89 44 24 08          	mov    %eax,0x8(%esp)
  101b9c:	c7 44 24 04 04 00 00 	movl   $0x4,0x4(%esp)
  101ba3:	00 
  101ba4:	c7 04 24 8b 98 10 00 	movl   $0x10988b,(%esp)
  101bab:	8b 45 08             	mov    0x8(%ebp),%eax
  101bae:	ff d0                	call   *%eax
  101bb0:	8b 45 e0             	mov    -0x20(%ebp),%eax
  101bb3:	c1 e8 04             	shr    $0x4,%eax
  101bb6:	83 e0 01             	and    $0x1,%eax
  101bb9:	85 c0                	test   %eax,%eax
  101bbb:	74 64                	je     101c21 <mb_dump+0x1fc>
  101bbd:	c7 04 24 1a 99 10 00 	movl   $0x10991a,(%esp)
  101bc4:	8b 45 08             	mov    0x8(%ebp),%eax
  101bc7:	ff d0                	call   *%eax
  101bc9:	8b 45 0c             	mov    0xc(%ebp),%eax
  101bcc:	8b 40 1c             	mov    0x1c(%eax),%eax
  101bcf:	89 44 24 04          	mov    %eax,0x4(%esp)
  101bd3:	c7 04 24 27 99 10 00 	movl   $0x109927,(%esp)
  101bda:	8b 45 08             	mov    0x8(%ebp),%eax
  101bdd:	ff d0                	call   *%eax
  101bdf:	8b 45 0c             	mov    0xc(%ebp),%eax
  101be2:	8b 40 20             	mov    0x20(%eax),%eax
  101be5:	89 44 24 04          	mov    %eax,0x4(%esp)
  101be9:	c7 04 24 3d 99 10 00 	movl   $0x10993d,(%esp)
  101bf0:	8b 45 08             	mov    0x8(%ebp),%eax
  101bf3:	ff d0                	call   *%eax
  101bf5:	8b 45 0c             	mov    0xc(%ebp),%eax
  101bf8:	8b 40 24             	mov    0x24(%eax),%eax
  101bfb:	89 44 24 04          	mov    %eax,0x4(%esp)
  101bff:	c7 04 24 53 99 10 00 	movl   $0x109953,(%esp)
  101c06:	8b 45 08             	mov    0x8(%ebp),%eax
  101c09:	ff d0                	call   *%eax
  101c0b:	8b 45 0c             	mov    0xc(%ebp),%eax
  101c0e:	8b 40 28             	mov    0x28(%eax),%eax
  101c11:	89 44 24 04          	mov    %eax,0x4(%esp)
  101c15:	c7 04 24 66 99 10 00 	movl   $0x109966,(%esp)
  101c1c:	8b 45 08             	mov    0x8(%ebp),%eax
  101c1f:	ff d0                	call   *%eax
  101c21:	8b 45 e0             	mov    -0x20(%ebp),%eax
  101c24:	c1 e8 05             	shr    $0x5,%eax
  101c27:	83 e0 01             	and    $0x1,%eax
  101c2a:	89 44 24 08          	mov    %eax,0x8(%esp)
  101c2e:	c7 44 24 04 05 00 00 	movl   $0x5,0x4(%esp)
  101c35:	00 
  101c36:	c7 04 24 8b 98 10 00 	movl   $0x10988b,(%esp)
  101c3d:	8b 45 08             	mov    0x8(%ebp),%eax
  101c40:	ff d0                	call   *%eax
  101c42:	8b 45 e0             	mov    -0x20(%ebp),%eax
  101c45:	c1 e8 05             	shr    $0x5,%eax
  101c48:	83 e0 01             	and    $0x1,%eax
  101c4b:	85 c0                	test   %eax,%eax
  101c4d:	74 64                	je     101cb3 <mb_dump+0x28e>
  101c4f:	c7 04 24 7d 99 10 00 	movl   $0x10997d,(%esp)
  101c56:	8b 45 08             	mov    0x8(%ebp),%eax
  101c59:	ff d0                	call   *%eax
  101c5b:	8b 45 0c             	mov    0xc(%ebp),%eax
  101c5e:	8b 40 1c             	mov    0x1c(%eax),%eax
  101c61:	89 44 24 04          	mov    %eax,0x4(%esp)
  101c65:	c7 04 24 89 99 10 00 	movl   $0x109989,(%esp)
  101c6c:	8b 45 08             	mov    0x8(%ebp),%eax
  101c6f:	ff d0                	call   *%eax
  101c71:	8b 45 0c             	mov    0xc(%ebp),%eax
  101c74:	8b 40 20             	mov    0x20(%eax),%eax
  101c77:	89 44 24 04          	mov    %eax,0x4(%esp)
  101c7b:	c7 04 24 9b 99 10 00 	movl   $0x10999b,(%esp)
  101c82:	8b 45 08             	mov    0x8(%ebp),%eax
  101c85:	ff d0                	call   *%eax
  101c87:	8b 45 0c             	mov    0xc(%ebp),%eax
  101c8a:	8b 40 24             	mov    0x24(%eax),%eax
  101c8d:	89 44 24 04          	mov    %eax,0x4(%esp)
  101c91:	c7 04 24 53 99 10 00 	movl   $0x109953,(%esp)
  101c98:	8b 45 08             	mov    0x8(%ebp),%eax
  101c9b:	ff d0                	call   *%eax
  101c9d:	8b 45 0c             	mov    0xc(%ebp),%eax
  101ca0:	8b 40 28             	mov    0x28(%eax),%eax
  101ca3:	89 44 24 04          	mov    %eax,0x4(%esp)
  101ca7:	c7 04 24 ae 99 10 00 	movl   $0x1099ae,(%esp)
  101cae:	8b 45 08             	mov    0x8(%ebp),%eax
  101cb1:	ff d0                	call   *%eax
  101cb3:	8b 45 e0             	mov    -0x20(%ebp),%eax
  101cb6:	c1 e8 06             	shr    $0x6,%eax
  101cb9:	83 e0 01             	and    $0x1,%eax
  101cbc:	89 44 24 08          	mov    %eax,0x8(%esp)
  101cc0:	c7 44 24 04 06 00 00 	movl   $0x6,0x4(%esp)
  101cc7:	00 
  101cc8:	c7 04 24 8b 98 10 00 	movl   $0x10988b,(%esp)
  101ccf:	8b 45 08             	mov    0x8(%ebp),%eax
  101cd2:	ff d0                	call   *%eax
  101cd4:	8b 45 e0             	mov    -0x20(%ebp),%eax
  101cd7:	c1 e8 06             	shr    $0x6,%eax
  101cda:	83 e0 01             	and    $0x1,%eax
  101cdd:	85 c0                	test   %eax,%eax
  101cdf:	0f 84 d6 00 00 00    	je     101dbb <mb_dump+0x396>
  101ce5:	8b 45 0c             	mov    0xc(%ebp),%eax
  101ce8:	8b 40 2c             	mov    0x2c(%eax),%eax
  101ceb:	89 44 24 04          	mov    %eax,0x4(%esp)
  101cef:	c7 04 24 c2 99 10 00 	movl   $0x1099c2,(%esp)
  101cf6:	8b 45 08             	mov    0x8(%ebp),%eax
  101cf9:	ff d0                	call   *%eax
  101cfb:	8b 45 0c             	mov    0xc(%ebp),%eax
  101cfe:	8b 40 30             	mov    0x30(%eax),%eax
  101d01:	89 44 24 04          	mov    %eax,0x4(%esp)
  101d05:	c7 04 24 da 99 10 00 	movl   $0x1099da,(%esp)
  101d0c:	8b 45 08             	mov    0x8(%ebp),%eax
  101d0f:	ff d0                	call   *%eax
  101d11:	8b 45 0c             	mov    0xc(%ebp),%eax
  101d14:	8b 40 30             	mov    0x30(%eax),%eax
  101d17:	89 45 e4             	mov    %eax,-0x1c(%ebp)
  101d1a:	e9 83 00 00 00       	jmp    101da2 <mb_dump+0x37d>
  101d1f:	8b 45 e4             	mov    -0x1c(%ebp),%eax
  101d22:	8b 40 14             	mov    0x14(%eax),%eax
  101d25:	83 f8 01             	cmp    $0x1,%eax
  101d28:	75 07                	jne    101d31 <mb_dump+0x30c>
  101d2a:	be f0 99 10 00       	mov    $0x1099f0,%esi
  101d2f:	eb 05                	jmp    101d36 <mb_dump+0x311>
  101d31:	be fa 99 10 00       	mov    $0x1099fa,%esi
  101d36:	8b 45 e4             	mov    -0x1c(%ebp),%eax
  101d39:	8b 40 14             	mov    0x14(%eax),%eax
  101d3c:	89 c7                	mov    %eax,%edi
  101d3e:	8b 45 e4             	mov    -0x1c(%ebp),%eax
  101d41:	8b 50 10             	mov    0x10(%eax),%edx
  101d44:	8b 40 0c             	mov    0xc(%eax),%eax
  101d47:	89 45 d0             	mov    %eax,-0x30(%ebp)
  101d4a:	89 55 d4             	mov    %edx,-0x2c(%ebp)
  101d4d:	8b 45 e4             	mov    -0x1c(%ebp),%eax
  101d50:	8b 48 04             	mov    0x4(%eax),%ecx
  101d53:	8b 58 08             	mov    0x8(%eax),%ebx
  101d56:	8b 45 e4             	mov    -0x1c(%ebp),%eax
  101d59:	8b 50 10             	mov    0x10(%eax),%edx
  101d5c:	8b 40 0c             	mov    0xc(%eax),%eax
  101d5f:	01 c1                	add    %eax,%ecx
  101d61:	11 d3                	adc    %edx,%ebx
  101d63:	8b 45 e4             	mov    -0x1c(%ebp),%eax
  101d66:	8b 50 08             	mov    0x8(%eax),%edx
  101d69:	8b 40 04             	mov    0x4(%eax),%eax
  101d6c:	89 74 24 20          	mov    %esi,0x20(%esp)
  101d70:	89 7c 24 1c          	mov    %edi,0x1c(%esp)
  101d74:	8b 75 d0             	mov    -0x30(%ebp),%esi
  101d77:	8b 7d d4             	mov    -0x2c(%ebp),%edi
  101d7a:	89 74 24 14          	mov    %esi,0x14(%esp)
  101d7e:	89 7c 24 18          	mov    %edi,0x18(%esp)
  101d82:	89 4c 24 0c          	mov    %ecx,0xc(%esp)
  101d86:	89 5c 24 10          	mov    %ebx,0x10(%esp)
  101d8a:	89 44 24 04          	mov    %eax,0x4(%esp)
  101d8e:	89 54 24 08          	mov    %edx,0x8(%esp)
  101d92:	c7 04 24 04 9a 10 00 	movl   $0x109a04,(%esp)
  101d99:	8b 45 08             	mov    0x8(%ebp),%eax
  101d9c:	ff d0                	call   *%eax
  101d9e:	83 45 e4 18          	addl   $0x18,-0x1c(%ebp)
  101da2:	8b 55 e4             	mov    -0x1c(%ebp),%edx
  101da5:	8b 45 0c             	mov    0xc(%ebp),%eax
  101da8:	8b 48 30             	mov    0x30(%eax),%ecx
  101dab:	8b 45 0c             	mov    0xc(%ebp),%eax
  101dae:	8b 40 2c             	mov    0x2c(%eax),%eax
  101db1:	01 c8                	add    %ecx,%eax
  101db3:	39 c2                	cmp    %eax,%edx
  101db5:	0f 82 64 ff ff ff    	jb     101d1f <mb_dump+0x2fa>
  101dbb:	8b 45 e0             	mov    -0x20(%ebp),%eax
  101dbe:	c1 e8 07             	shr    $0x7,%eax
  101dc1:	83 e0 01             	and    $0x1,%eax
  101dc4:	89 44 24 08          	mov    %eax,0x8(%esp)
  101dc8:	c7 44 24 04 07 00 00 	movl   $0x7,0x4(%esp)
  101dcf:	00 
  101dd0:	c7 04 24 8b 98 10 00 	movl   $0x10988b,(%esp)
  101dd7:	8b 45 08             	mov    0x8(%ebp),%eax
  101dda:	ff d0                	call   *%eax
  101ddc:	8b 45 e0             	mov    -0x20(%ebp),%eax
  101ddf:	c1 e8 07             	shr    $0x7,%eax
  101de2:	83 e0 01             	and    $0x1,%eax
  101de5:	85 c0                	test   %eax,%eax
  101de7:	74 0c                	je     101df5 <mb_dump+0x3d0>
  101de9:	c7 04 24 4a 9a 10 00 	movl   $0x109a4a,(%esp)
  101df0:	8b 45 08             	mov    0x8(%ebp),%eax
  101df3:	ff d0                	call   *%eax
  101df5:	8b 45 e0             	mov    -0x20(%ebp),%eax
  101df8:	c1 e8 08             	shr    $0x8,%eax
  101dfb:	83 e0 01             	and    $0x1,%eax
  101dfe:	89 44 24 08          	mov    %eax,0x8(%esp)
  101e02:	c7 44 24 04 08 00 00 	movl   $0x8,0x4(%esp)
  101e09:	00 
  101e0a:	c7 04 24 8b 98 10 00 	movl   $0x10988b,(%esp)
  101e11:	8b 45 08             	mov    0x8(%ebp),%eax
  101e14:	ff d0                	call   *%eax
  101e16:	8b 45 e0             	mov    -0x20(%ebp),%eax
  101e19:	c1 e8 08             	shr    $0x8,%eax
  101e1c:	83 e0 01             	and    $0x1,%eax
  101e1f:	85 c0                	test   %eax,%eax
  101e21:	74 0c                	je     101e2f <mb_dump+0x40a>
  101e23:	c7 04 24 4a 9a 10 00 	movl   $0x109a4a,(%esp)
  101e2a:	8b 45 08             	mov    0x8(%ebp),%eax
  101e2d:	ff d0                	call   *%eax
  101e2f:	8b 45 e0             	mov    -0x20(%ebp),%eax
  101e32:	c1 e8 09             	shr    $0x9,%eax
  101e35:	83 e0 01             	and    $0x1,%eax
  101e38:	89 44 24 08          	mov    %eax,0x8(%esp)
  101e3c:	c7 44 24 04 09 00 00 	movl   $0x9,0x4(%esp)
  101e43:	00 
  101e44:	c7 04 24 8b 98 10 00 	movl   $0x10988b,(%esp)
  101e4b:	8b 45 08             	mov    0x8(%ebp),%eax
  101e4e:	ff d0                	call   *%eax
  101e50:	8b 45 e0             	mov    -0x20(%ebp),%eax
  101e53:	c1 e8 09             	shr    $0x9,%eax
  101e56:	83 e0 01             	and    $0x1,%eax
  101e59:	85 c0                	test   %eax,%eax
  101e5b:	74 16                	je     101e73 <mb_dump+0x44e>
  101e5d:	8b 45 0c             	mov    0xc(%ebp),%eax
  101e60:	8b 40 40             	mov    0x40(%eax),%eax
  101e63:	89 44 24 04          	mov    %eax,0x4(%esp)
  101e67:	c7 04 24 52 9a 10 00 	movl   $0x109a52,(%esp)
  101e6e:	8b 45 08             	mov    0x8(%ebp),%eax
  101e71:	ff d0                	call   *%eax
  101e73:	8b 45 e0             	mov    -0x20(%ebp),%eax
  101e76:	c1 e8 0a             	shr    $0xa,%eax
  101e79:	83 e0 01             	and    $0x1,%eax
  101e7c:	89 44 24 08          	mov    %eax,0x8(%esp)
  101e80:	c7 44 24 04 0a 00 00 	movl   $0xa,0x4(%esp)
  101e87:	00 
  101e88:	c7 04 24 8b 98 10 00 	movl   $0x10988b,(%esp)
  101e8f:	8b 45 08             	mov    0x8(%ebp),%eax
  101e92:	ff d0                	call   *%eax
  101e94:	8b 45 e0             	mov    -0x20(%ebp),%eax
  101e97:	c1 e8 0a             	shr    $0xa,%eax
  101e9a:	83 e0 01             	and    $0x1,%eax
  101e9d:	85 c0                	test   %eax,%eax
  101e9f:	74 0c                	je     101ead <mb_dump+0x488>
  101ea1:	c7 04 24 4a 9a 10 00 	movl   $0x109a4a,(%esp)
  101ea8:	8b 45 08             	mov    0x8(%ebp),%eax
  101eab:	ff d0                	call   *%eax
  101ead:	8b 45 e0             	mov    -0x20(%ebp),%eax
  101eb0:	c1 e8 0b             	shr    $0xb,%eax
  101eb3:	83 e0 01             	and    $0x1,%eax
  101eb6:	89 44 24 08          	mov    %eax,0x8(%esp)
  101eba:	c7 44 24 04 0b 00 00 	movl   $0xb,0x4(%esp)
  101ec1:	00 
  101ec2:	c7 04 24 8b 98 10 00 	movl   $0x10988b,(%esp)
  101ec9:	8b 45 08             	mov    0x8(%ebp),%eax
  101ecc:	ff d0                	call   *%eax
  101ece:	8b 45 e0             	mov    -0x20(%ebp),%eax
  101ed1:	c1 e8 0b             	shr    $0xb,%eax
  101ed4:	83 e0 01             	and    $0x1,%eax
  101ed7:	85 c0                	test   %eax,%eax
  101ed9:	74 0c                	je     101ee7 <mb_dump+0x4c2>
  101edb:	c7 04 24 4a 9a 10 00 	movl   $0x109a4a,(%esp)
  101ee2:	8b 45 08             	mov    0x8(%ebp),%eax
  101ee5:	ff d0                	call   *%eax
  101ee7:	83 c4 4c             	add    $0x4c,%esp
  101eea:	5b                   	pop    %ebx
  101eeb:	5e                   	pop    %esi
  101eec:	5f                   	pop    %edi
  101eed:	5d                   	pop    %ebp
  101eee:	c3                   	ret    
  101eef:	90                   	nop

00101ef0 <rindex>:
  101ef0:	55                   	push   %ebp
  101ef1:	89 e5                	mov    %esp,%ebp
  101ef3:	83 ec 10             	sub    $0x10,%esp
  101ef6:	c7 45 fc 00 00 00 00 	movl   $0x0,-0x4(%ebp)
  101efd:	8b 45 08             	mov    0x8(%ebp),%eax
  101f00:	8a 00                	mov    (%eax),%al
  101f02:	0f be c0             	movsbl %al,%eax
  101f05:	3b 45 0c             	cmp    0xc(%ebp),%eax
  101f08:	75 06                	jne    101f10 <rindex+0x20>
  101f0a:	8b 45 08             	mov    0x8(%ebp),%eax
  101f0d:	89 45 fc             	mov    %eax,-0x4(%ebp)
  101f10:	8b 45 08             	mov    0x8(%ebp),%eax
  101f13:	8a 00                	mov    (%eax),%al
  101f15:	84 c0                	test   %al,%al
  101f17:	75 05                	jne    101f1e <rindex+0x2e>
  101f19:	8b 45 fc             	mov    -0x4(%ebp),%eax
  101f1c:	eb 05                	jmp    101f23 <rindex+0x33>
  101f1e:	ff 45 08             	incl   0x8(%ebp)
  101f21:	eb da                	jmp    101efd <rindex+0xd>
  101f23:	c9                   	leave  
  101f24:	c3                   	ret    
  101f25:	66 90                	xchg   %ax,%ax
  101f27:	90                   	nop

00101f28 <strcmp>:
  101f28:	55                   	push   %ebp
  101f29:	89 e5                	mov    %esp,%ebp
  101f2b:	56                   	push   %esi
  101f2c:	53                   	push   %ebx
  101f2d:	8b 55 08             	mov    0x8(%ebp),%edx
  101f30:	8b 4d 0c             	mov    0xc(%ebp),%ecx
  101f33:	eb 0a                	jmp    101f3f <strcmp+0x17>
  101f35:	39 de                	cmp    %ebx,%esi
  101f37:	74 06                	je     101f3f <strcmp+0x17>
  101f39:	89 f0                	mov    %esi,%eax
  101f3b:	29 d8                	sub    %ebx,%eax
  101f3d:	eb 36                	jmp    101f75 <strcmp+0x4d>
  101f3f:	89 d0                	mov    %edx,%eax
  101f41:	8d 50 01             	lea    0x1(%eax),%edx
  101f44:	8a 00                	mov    (%eax),%al
  101f46:	89 c6                	mov    %eax,%esi
  101f48:	81 e6 ff 00 00 00    	and    $0xff,%esi
  101f4e:	89 c8                	mov    %ecx,%eax
  101f50:	8d 48 01             	lea    0x1(%eax),%ecx
  101f53:	8a 00                	mov    (%eax),%al
  101f55:	31 db                	xor    %ebx,%ebx
  101f57:	88 c3                	mov    %al,%bl
  101f59:	85 f6                	test   %esi,%esi
  101f5b:	74 0b                	je     101f68 <strcmp+0x40>
  101f5d:	85 db                	test   %ebx,%ebx
  101f5f:	74 07                	je     101f68 <strcmp+0x40>
  101f61:	b8 01 00 00 00       	mov    $0x1,%eax
  101f66:	eb 05                	jmp    101f6d <strcmp+0x45>
  101f68:	b8 00 00 00 00       	mov    $0x0,%eax
  101f6d:	85 c0                	test   %eax,%eax
  101f6f:	75 c4                	jne    101f35 <strcmp+0xd>
  101f71:	89 f0                	mov    %esi,%eax
  101f73:	29 d8                	sub    %ebx,%eax
  101f75:	5b                   	pop    %ebx
  101f76:	5e                   	pop    %esi
  101f77:	5d                   	pop    %ebp
  101f78:	c3                   	ret    
  101f79:	66 90                	xchg   %ax,%ax
  101f7b:	90                   	nop

00101f7c <strpbrk>:
  101f7c:	55                   	push   %ebp
  101f7d:	89 e5                	mov    %esp,%ebp
  101f7f:	57                   	push   %edi
  101f80:	56                   	push   %esi
  101f81:	53                   	push   %ebx
  101f82:	8b 55 08             	mov    0x8(%ebp),%edx
  101f85:	eb 1c                	jmp    101fa3 <strpbrk+0x27>
  101f87:	8b 7d 0c             	mov    0xc(%ebp),%edi
  101f8a:	eb 09                	jmp    101f95 <strpbrk+0x19>
  101f8c:	39 de                	cmp    %ebx,%esi
  101f8e:	75 05                	jne    101f95 <strpbrk+0x19>
  101f90:	8d 42 ff             	lea    -0x1(%edx),%eax
  101f93:	eb 21                	jmp    101fb6 <strpbrk+0x3a>
  101f95:	89 f8                	mov    %edi,%eax
  101f97:	8d 78 01             	lea    0x1(%eax),%edi
  101f9a:	8a 00                	mov    (%eax),%al
  101f9c:	0f be f0             	movsbl %al,%esi
  101f9f:	85 f6                	test   %esi,%esi
  101fa1:	75 e9                	jne    101f8c <strpbrk+0x10>
  101fa3:	89 d0                	mov    %edx,%eax
  101fa5:	8d 50 01             	lea    0x1(%eax),%edx
  101fa8:	8a 00                	mov    (%eax),%al
  101faa:	0f be d8             	movsbl %al,%ebx
  101fad:	85 db                	test   %ebx,%ebx
  101faf:	75 d6                	jne    101f87 <strpbrk+0xb>
  101fb1:	b8 00 00 00 00       	mov    $0x0,%eax
  101fb6:	5b                   	pop    %ebx
  101fb7:	5e                   	pop    %esi
  101fb8:	5f                   	pop    %edi
  101fb9:	5d                   	pop    %ebp
  101fba:	c3                   	ret    
  101fbb:	90                   	nop

00101fbc <strcat>:
  101fbc:	55                   	push   %ebp
  101fbd:	89 e5                	mov    %esp,%ebp
  101fbf:	56                   	push   %esi
  101fc0:	53                   	push   %ebx
  101fc1:	8b 55 08             	mov    0x8(%ebp),%edx
  101fc4:	8b 75 0c             	mov    0xc(%ebp),%esi
  101fc7:	89 d3                	mov    %edx,%ebx
  101fc9:	eb 01                	jmp    101fcc <strcat+0x10>
  101fcb:	42                   	inc    %edx
  101fcc:	8a 02                	mov    (%edx),%al
  101fce:	84 c0                	test   %al,%al
  101fd0:	75 f9                	jne    101fcb <strcat+0xf>
  101fd2:	90                   	nop
  101fd3:	89 d0                	mov    %edx,%eax
  101fd5:	8d 50 01             	lea    0x1(%eax),%edx
  101fd8:	89 f1                	mov    %esi,%ecx
  101fda:	8d 71 01             	lea    0x1(%ecx),%esi
  101fdd:	8a 09                	mov    (%ecx),%cl
  101fdf:	88 08                	mov    %cl,(%eax)
  101fe1:	8a 00                	mov    (%eax),%al
  101fe3:	84 c0                	test   %al,%al
  101fe5:	75 ec                	jne    101fd3 <strcat+0x17>
  101fe7:	89 d8                	mov    %ebx,%eax
  101fe9:	5b                   	pop    %ebx
  101fea:	5e                   	pop    %esi
  101feb:	5d                   	pop    %ebp
  101fec:	c3                   	ret    
  101fed:	66 90                	xchg   %ax,%ax
  101fef:	90                   	nop

00101ff0 <strrchr>:
  101ff0:	55                   	push   %ebp
  101ff1:	89 e5                	mov    %esp,%ebp
  101ff3:	83 ec 10             	sub    $0x10,%esp
  101ff6:	c7 45 fc 00 00 00 00 	movl   $0x0,-0x4(%ebp)
  101ffd:	eb 16                	jmp    102015 <strrchr+0x25>
  101fff:	8b 45 08             	mov    0x8(%ebp),%eax
  102002:	8a 00                	mov    (%eax),%al
  102004:	0f be c0             	movsbl %al,%eax
  102007:	3b 45 0c             	cmp    0xc(%ebp),%eax
  10200a:	75 06                	jne    102012 <strrchr+0x22>
  10200c:	8b 45 08             	mov    0x8(%ebp),%eax
  10200f:	89 45 fc             	mov    %eax,-0x4(%ebp)
  102012:	ff 45 08             	incl   0x8(%ebp)
  102015:	8b 45 08             	mov    0x8(%ebp),%eax
  102018:	8a 00                	mov    (%eax),%al
  10201a:	84 c0                	test   %al,%al
  10201c:	75 e1                	jne    101fff <strrchr+0xf>
  10201e:	8b 45 fc             	mov    -0x4(%ebp),%eax
  102021:	c9                   	leave  
  102022:	c3                   	ret    
  102023:	90                   	nop

00102024 <strncmp>:
  102024:	55                   	push   %ebp
  102025:	89 e5                	mov    %esp,%ebp
  102027:	83 7d 10 00          	cmpl   $0x0,0x10(%ebp)
  10202b:	75 07                	jne    102034 <strncmp+0x10>
  10202d:	b8 00 00 00 00       	mov    $0x0,%eax
  102032:	eb 3f                	jmp    102073 <strncmp+0x4f>
  102034:	8b 45 08             	mov    0x8(%ebp),%eax
  102037:	8a 10                	mov    (%eax),%dl
  102039:	8b 45 0c             	mov    0xc(%ebp),%eax
  10203c:	8a 00                	mov    (%eax),%al
  10203e:	38 c2                	cmp    %al,%dl
  102040:	74 16                	je     102058 <strncmp+0x34>
  102042:	8b 45 08             	mov    0x8(%ebp),%eax
  102045:	8a 00                	mov    (%eax),%al
  102047:	0f be d0             	movsbl %al,%edx
  10204a:	8b 45 0c             	mov    0xc(%ebp),%eax
  10204d:	8a 00                	mov    (%eax),%al
  10204f:	0f be c0             	movsbl %al,%eax
  102052:	29 c2                	sub    %eax,%edx
  102054:	89 d0                	mov    %edx,%eax
  102056:	eb 1b                	jmp    102073 <strncmp+0x4f>
  102058:	8b 45 08             	mov    0x8(%ebp),%eax
  10205b:	8a 00                	mov    (%eax),%al
  10205d:	84 c0                	test   %al,%al
  10205f:	75 07                	jne    102068 <strncmp+0x44>
  102061:	b8 00 00 00 00       	mov    $0x0,%eax
  102066:	eb 0b                	jmp    102073 <strncmp+0x4f>
  102068:	ff 45 08             	incl   0x8(%ebp)
  10206b:	ff 45 0c             	incl   0xc(%ebp)
  10206e:	ff 4d 10             	decl   0x10(%ebp)
  102071:	eb b4                	jmp    102027 <strncmp+0x3>
  102073:	5d                   	pop    %ebp
  102074:	c3                   	ret    
  102075:	66 90                	xchg   %ax,%ax
  102077:	90                   	nop

00102078 <memcmp>:
  102078:	55                   	push   %ebp
  102079:	89 e5                	mov    %esp,%ebp
  10207b:	57                   	push   %edi
  10207c:	56                   	push   %esi
  10207d:	53                   	push   %ebx
  10207e:	8b 5d 08             	mov    0x8(%ebp),%ebx
  102081:	8b 75 0c             	mov    0xc(%ebp),%esi
  102084:	eb 22                	jmp    1020a8 <memcmp+0x30>
  102086:	89 d8                	mov    %ebx,%eax
  102088:	8d 58 01             	lea    0x1(%eax),%ebx
  10208b:	8a 00                	mov    (%eax),%al
  10208d:	0f be c0             	movsbl %al,%eax
  102090:	89 c1                	mov    %eax,%ecx
  102092:	89 ca                	mov    %ecx,%edx
  102094:	89 f0                	mov    %esi,%eax
  102096:	8d 70 01             	lea    0x1(%eax),%esi
  102099:	8a 00                	mov    (%eax),%al
  10209b:	0f be f8             	movsbl %al,%edi
  10209e:	39 f9                	cmp    %edi,%ecx
  1020a0:	74 06                	je     1020a8 <memcmp+0x30>
  1020a2:	89 d0                	mov    %edx,%eax
  1020a4:	29 f8                	sub    %edi,%eax
  1020a6:	eb 12                	jmp    1020ba <memcmp+0x42>
  1020a8:	8b 45 10             	mov    0x10(%ebp),%eax
  1020ab:	8d 50 ff             	lea    -0x1(%eax),%edx
  1020ae:	89 55 10             	mov    %edx,0x10(%ebp)
  1020b1:	85 c0                	test   %eax,%eax
  1020b3:	7f d1                	jg     102086 <memcmp+0xe>
  1020b5:	b8 00 00 00 00       	mov    $0x0,%eax
  1020ba:	5b                   	pop    %ebx
  1020bb:	5e                   	pop    %esi
  1020bc:	5f                   	pop    %edi
  1020bd:	5d                   	pop    %ebp
  1020be:	c3                   	ret    
  1020bf:	90                   	nop

001020c0 <memset>:
  1020c0:	55                   	push   %ebp
  1020c1:	89 e5                	mov    %esp,%ebp
  1020c3:	53                   	push   %ebx
  1020c4:	8b 5d 08             	mov    0x8(%ebp),%ebx
  1020c7:	eb 0a                	jmp    1020d3 <memset+0x13>
  1020c9:	89 d8                	mov    %ebx,%eax
  1020cb:	8d 58 01             	lea    0x1(%eax),%ebx
  1020ce:	8b 55 0c             	mov    0xc(%ebp),%edx
  1020d1:	88 10                	mov    %dl,(%eax)
  1020d3:	8b 45 10             	mov    0x10(%ebp),%eax
  1020d6:	8d 50 ff             	lea    -0x1(%eax),%edx
  1020d9:	89 55 10             	mov    %edx,0x10(%ebp)
  1020dc:	85 c0                	test   %eax,%eax
  1020de:	75 e9                	jne    1020c9 <memset+0x9>
  1020e0:	8b 45 08             	mov    0x8(%ebp),%eax
  1020e3:	5b                   	pop    %ebx
  1020e4:	5d                   	pop    %ebp
  1020e5:	c3                   	ret    
  1020e6:	66 90                	xchg   %ax,%ax

001020e8 <strchr>:
  1020e8:	55                   	push   %ebp
  1020e9:	89 e5                	mov    %esp,%ebp
  1020eb:	8b 45 08             	mov    0x8(%ebp),%eax
  1020ee:	8a 00                	mov    (%eax),%al
  1020f0:	0f be c0             	movsbl %al,%eax
  1020f3:	3b 45 0c             	cmp    0xc(%ebp),%eax
  1020f6:	75 05                	jne    1020fd <strchr+0x15>
  1020f8:	8b 45 08             	mov    0x8(%ebp),%eax
  1020fb:	eb 15                	jmp    102112 <strchr+0x2a>
  1020fd:	8b 45 08             	mov    0x8(%ebp),%eax
  102100:	8a 00                	mov    (%eax),%al
  102102:	84 c0                	test   %al,%al
  102104:	75 07                	jne    10210d <strchr+0x25>
  102106:	b8 00 00 00 00       	mov    $0x0,%eax
  10210b:	eb 05                	jmp    102112 <strchr+0x2a>
  10210d:	ff 45 08             	incl   0x8(%ebp)
  102110:	eb d9                	jmp    1020eb <strchr+0x3>
  102112:	5d                   	pop    %ebp
  102113:	c3                   	ret    

00102114 <strdup>:
  102114:	55                   	push   %ebp
  102115:	89 e5                	mov    %esp,%ebp
  102117:	83 ec 18             	sub    $0x18,%esp
  10211a:	c7 04 24 6b 9a 10 00 	movl   $0x109a6b,(%esp)
  102121:	e8 be 38 00 00       	call   1059e4 <panic>
  102126:	b8 00 00 00 00       	mov    $0x0,%eax
  10212b:	c9                   	leave  
  10212c:	c3                   	ret    
  10212d:	66 90                	xchg   %ax,%ax
  10212f:	90                   	nop

00102130 <strtok>:
  102130:	55                   	push   %ebp
  102131:	89 e5                	mov    %esp,%ebp
  102133:	57                   	push   %edi
  102134:	56                   	push   %esi
  102135:	53                   	push   %ebx
  102136:	83 ec 10             	sub    $0x10,%esp
  102139:	8b 45 08             	mov    0x8(%ebp),%eax
  10213c:	8b 4d 0c             	mov    0xc(%ebp),%ecx
  10213f:	85 c0                	test   %eax,%eax
  102141:	75 10                	jne    102153 <strtok+0x23>
  102143:	a1 04 20 21 00       	mov    0x212004,%eax
  102148:	85 c0                	test   %eax,%eax
  10214a:	75 07                	jne    102153 <strtok+0x23>
  10214c:	b8 00 00 00 00       	mov    $0x0,%eax
  102151:	eb 78                	jmp    1021cb <strtok+0x9b>
  102153:	89 c2                	mov    %eax,%edx
  102155:	8d 42 01             	lea    0x1(%edx),%eax
  102158:	8a 12                	mov    (%edx),%dl
  10215a:	0f be fa             	movsbl %dl,%edi
  10215d:	89 ce                	mov    %ecx,%esi
  10215f:	eb 06                	jmp    102167 <strtok+0x37>
  102161:	39 df                	cmp    %ebx,%edi
  102163:	75 02                	jne    102167 <strtok+0x37>
  102165:	eb ec                	jmp    102153 <strtok+0x23>
  102167:	89 f2                	mov    %esi,%edx
  102169:	8d 72 01             	lea    0x1(%edx),%esi
  10216c:	8a 12                	mov    (%edx),%dl
  10216e:	0f be da             	movsbl %dl,%ebx
  102171:	85 db                	test   %ebx,%ebx
  102173:	75 ec                	jne    102161 <strtok+0x31>
  102175:	85 ff                	test   %edi,%edi
  102177:	75 11                	jne    10218a <strtok+0x5a>
  102179:	c7 05 04 20 21 00 00 	movl   $0x0,0x212004
  102180:	00 00 00 
  102183:	b8 00 00 00 00       	mov    $0x0,%eax
  102188:	eb 41                	jmp    1021cb <strtok+0x9b>
  10218a:	8d 50 ff             	lea    -0x1(%eax),%edx
  10218d:	89 55 f0             	mov    %edx,-0x10(%ebp)
  102190:	89 c2                	mov    %eax,%edx
  102192:	8d 42 01             	lea    0x1(%edx),%eax
  102195:	8a 12                	mov    (%edx),%dl
  102197:	0f be fa             	movsbl %dl,%edi
  10219a:	89 ce                	mov    %ecx,%esi
  10219c:	89 f2                	mov    %esi,%edx
  10219e:	8d 72 01             	lea    0x1(%edx),%esi
  1021a1:	8a 12                	mov    (%edx),%dl
  1021a3:	0f be da             	movsbl %dl,%ebx
  1021a6:	39 fb                	cmp    %edi,%ebx
  1021a8:	75 1b                	jne    1021c5 <strtok+0x95>
  1021aa:	85 ff                	test   %edi,%edi
  1021ac:	75 07                	jne    1021b5 <strtok+0x85>
  1021ae:	b8 00 00 00 00       	mov    $0x0,%eax
  1021b3:	eb 06                	jmp    1021bb <strtok+0x8b>
  1021b5:	8d 50 ff             	lea    -0x1(%eax),%edx
  1021b8:	c6 02 00             	movb   $0x0,(%edx)
  1021bb:	a3 04 20 21 00       	mov    %eax,0x212004
  1021c0:	8b 45 f0             	mov    -0x10(%ebp),%eax
  1021c3:	eb 06                	jmp    1021cb <strtok+0x9b>
  1021c5:	85 db                	test   %ebx,%ebx
  1021c7:	75 d3                	jne    10219c <strtok+0x6c>
  1021c9:	eb c5                	jmp    102190 <strtok+0x60>
  1021cb:	83 c4 10             	add    $0x10,%esp
  1021ce:	5b                   	pop    %ebx
  1021cf:	5e                   	pop    %esi
  1021d0:	5f                   	pop    %edi
  1021d1:	5d                   	pop    %ebp
  1021d2:	c3                   	ret    
  1021d3:	90                   	nop

001021d4 <strcspn>:
  1021d4:	55                   	push   %ebp
  1021d5:	89 e5                	mov    %esp,%ebp
  1021d7:	56                   	push   %esi
  1021d8:	53                   	push   %ebx
  1021d9:	8b 5d 08             	mov    0x8(%ebp),%ebx
  1021dc:	89 d8                	mov    %ebx,%eax
  1021de:	8d 58 01             	lea    0x1(%eax),%ebx
  1021e1:	8a 00                	mov    (%eax),%al
  1021e3:	88 c1                	mov    %al,%cl
  1021e5:	8b 75 0c             	mov    0xc(%ebp),%esi
  1021e8:	89 f0                	mov    %esi,%eax
  1021ea:	8d 70 01             	lea    0x1(%eax),%esi
  1021ed:	8a 00                	mov    (%eax),%al
  1021ef:	38 c8                	cmp    %cl,%al
  1021f1:	75 0e                	jne    102201 <strcspn+0x2d>
  1021f3:	8d 43 ff             	lea    -0x1(%ebx),%eax
  1021f6:	89 c2                	mov    %eax,%edx
  1021f8:	8b 45 08             	mov    0x8(%ebp),%eax
  1021fb:	29 c2                	sub    %eax,%edx
  1021fd:	89 d0                	mov    %edx,%eax
  1021ff:	eb 06                	jmp    102207 <strcspn+0x33>
  102201:	84 c0                	test   %al,%al
  102203:	75 e3                	jne    1021e8 <strcspn+0x14>
  102205:	eb d5                	jmp    1021dc <strcspn+0x8>
  102207:	5b                   	pop    %ebx
  102208:	5e                   	pop    %esi
  102209:	5d                   	pop    %ebp
  10220a:	c3                   	ret    
  10220b:	90                   	nop

0010220c <strstr>:
  10220c:	55                   	push   %ebp
  10220d:	89 e5                	mov    %esp,%ebp
  10220f:	83 ec 28             	sub    $0x28,%esp
  102212:	8b 45 08             	mov    0x8(%ebp),%eax
  102215:	89 04 24             	mov    %eax,(%esp)
  102218:	e8 87 00 00 00       	call   1022a4 <strlen>
  10221d:	89 45 f4             	mov    %eax,-0xc(%ebp)
  102220:	8b 45 0c             	mov    0xc(%ebp),%eax
  102223:	89 04 24             	mov    %eax,(%esp)
  102226:	e8 79 00 00 00       	call   1022a4 <strlen>
  10222b:	89 45 f0             	mov    %eax,-0x10(%ebp)
  10222e:	eb 28                	jmp    102258 <strstr+0x4c>
  102230:	8b 45 f0             	mov    -0x10(%ebp),%eax
  102233:	89 44 24 08          	mov    %eax,0x8(%esp)
  102237:	8b 45 0c             	mov    0xc(%ebp),%eax
  10223a:	89 44 24 04          	mov    %eax,0x4(%esp)
  10223e:	8b 45 08             	mov    0x8(%ebp),%eax
  102241:	89 04 24             	mov    %eax,(%esp)
  102244:	e8 2f fe ff ff       	call   102078 <memcmp>
  102249:	85 c0                	test   %eax,%eax
  10224b:	75 05                	jne    102252 <strstr+0x46>
  10224d:	8b 45 08             	mov    0x8(%ebp),%eax
  102250:	eb 13                	jmp    102265 <strstr+0x59>
  102252:	ff 45 08             	incl   0x8(%ebp)
  102255:	ff 4d f4             	decl   -0xc(%ebp)
  102258:	8b 45 f4             	mov    -0xc(%ebp),%eax
  10225b:	3b 45 f0             	cmp    -0x10(%ebp),%eax
  10225e:	7d d0                	jge    102230 <strstr+0x24>
  102260:	b8 00 00 00 00       	mov    $0x0,%eax
  102265:	c9                   	leave  
  102266:	c3                   	ret    
  102267:	90                   	nop

00102268 <strncat>:
  102268:	55                   	push   %ebp
  102269:	89 e5                	mov    %esp,%ebp
  10226b:	56                   	push   %esi
  10226c:	53                   	push   %ebx
  10226d:	8b 45 10             	mov    0x10(%ebp),%eax
  102270:	85 c0                	test   %eax,%eax
  102272:	74 29                	je     10229d <strncat+0x35>
  102274:	8b 5d 08             	mov    0x8(%ebp),%ebx
  102277:	8b 75 0c             	mov    0xc(%ebp),%esi
  10227a:	eb 01                	jmp    10227d <strncat+0x15>
  10227c:	43                   	inc    %ebx
  10227d:	8a 13                	mov    (%ebx),%dl
  10227f:	84 d2                	test   %dl,%dl
  102281:	75 f9                	jne    10227c <strncat+0x14>
  102283:	89 f2                	mov    %esi,%edx
  102285:	8d 72 01             	lea    0x1(%edx),%esi
  102288:	8a 12                	mov    (%edx),%dl
  10228a:	88 13                	mov    %dl,(%ebx)
  10228c:	8a 13                	mov    (%ebx),%dl
  10228e:	84 d2                	test   %dl,%dl
  102290:	75 02                	jne    102294 <strncat+0x2c>
  102292:	eb 06                	jmp    10229a <strncat+0x32>
  102294:	43                   	inc    %ebx
  102295:	48                   	dec    %eax
  102296:	85 c0                	test   %eax,%eax
  102298:	75 e9                	jne    102283 <strncat+0x1b>
  10229a:	c6 03 00             	movb   $0x0,(%ebx)
  10229d:	8b 45 08             	mov    0x8(%ebp),%eax
  1022a0:	5b                   	pop    %ebx
  1022a1:	5e                   	pop    %esi
  1022a2:	5d                   	pop    %ebp
  1022a3:	c3                   	ret    

001022a4 <strlen>:
  1022a4:	55                   	push   %ebp
  1022a5:	89 e5                	mov    %esp,%ebp
  1022a7:	53                   	push   %ebx
  1022a8:	8b 55 08             	mov    0x8(%ebp),%edx
  1022ab:	89 d3                	mov    %edx,%ebx
  1022ad:	90                   	nop
  1022ae:	89 d0                	mov    %edx,%eax
  1022b0:	8d 50 01             	lea    0x1(%eax),%edx
  1022b3:	8a 00                	mov    (%eax),%al
  1022b5:	84 c0                	test   %al,%al
  1022b7:	75 f5                	jne    1022ae <strlen+0xa>
  1022b9:	8d 42 ff             	lea    -0x1(%edx),%eax
  1022bc:	89 c2                	mov    %eax,%edx
  1022be:	89 d8                	mov    %ebx,%eax
  1022c0:	29 c2                	sub    %eax,%edx
  1022c2:	89 d0                	mov    %edx,%eax
  1022c4:	5b                   	pop    %ebx
  1022c5:	5d                   	pop    %ebp
  1022c6:	c3                   	ret    
  1022c7:	90                   	nop

001022c8 <strncpy>:
  1022c8:	55                   	push   %ebp
  1022c9:	89 e5                	mov    %esp,%ebp
  1022cb:	57                   	push   %edi
  1022cc:	56                   	push   %esi
  1022cd:	53                   	push   %ebx
  1022ce:	8b 55 08             	mov    0x8(%ebp),%edx
  1022d1:	8b 7d 0c             	mov    0xc(%ebp),%edi
  1022d4:	8b 4d 10             	mov    0x10(%ebp),%ecx
  1022d7:	89 d6                	mov    %edx,%esi
  1022d9:	90                   	nop
  1022da:	89 c8                	mov    %ecx,%eax
  1022dc:	8d 48 ff             	lea    -0x1(%eax),%ecx
  1022df:	85 c0                	test   %eax,%eax
  1022e1:	7e 14                	jle    1022f7 <strncpy+0x2f>
  1022e3:	89 d0                	mov    %edx,%eax
  1022e5:	8d 50 01             	lea    0x1(%eax),%edx
  1022e8:	89 fb                	mov    %edi,%ebx
  1022ea:	8d 7b 01             	lea    0x1(%ebx),%edi
  1022ed:	8a 1b                	mov    (%ebx),%bl
  1022ef:	88 18                	mov    %bl,(%eax)
  1022f1:	8a 00                	mov    (%eax),%al
  1022f3:	84 c0                	test   %al,%al
  1022f5:	75 e3                	jne    1022da <strncpy+0x12>
  1022f7:	eb 08                	jmp    102301 <strncpy+0x39>
  1022f9:	89 d0                	mov    %edx,%eax
  1022fb:	8d 50 01             	lea    0x1(%eax),%edx
  1022fe:	c6 00 00             	movb   $0x0,(%eax)
  102301:	89 c8                	mov    %ecx,%eax
  102303:	8d 48 ff             	lea    -0x1(%eax),%ecx
  102306:	85 c0                	test   %eax,%eax
  102308:	7f ef                	jg     1022f9 <strncpy+0x31>
  10230a:	89 f0                	mov    %esi,%eax
  10230c:	5b                   	pop    %ebx
  10230d:	5e                   	pop    %esi
  10230e:	5f                   	pop    %edi
  10230f:	5d                   	pop    %ebp
  102310:	c3                   	ret    
  102311:	66 90                	xchg   %ax,%ax
  102313:	90                   	nop

00102314 <strspn>:
  102314:	55                   	push   %ebp
  102315:	89 e5                	mov    %esp,%ebp
  102317:	56                   	push   %esi
  102318:	53                   	push   %ebx
  102319:	8b 5d 08             	mov    0x8(%ebp),%ebx
  10231c:	89 d8                	mov    %ebx,%eax
  10231e:	8d 58 01             	lea    0x1(%eax),%ebx
  102321:	8a 00                	mov    (%eax),%al
  102323:	88 c1                	mov    %al,%cl
  102325:	8b 75 0c             	mov    0xc(%ebp),%esi
  102328:	eb 08                	jmp    102332 <strspn+0x1e>
  10232a:	88 c8                	mov    %cl,%al
  10232c:	38 c2                	cmp    %al,%dl
  10232e:	75 02                	jne    102332 <strspn+0x1e>
  102330:	eb ea                	jmp    10231c <strspn+0x8>
  102332:	89 f0                	mov    %esi,%eax
  102334:	8d 70 01             	lea    0x1(%eax),%esi
  102337:	8a 00                	mov    (%eax),%al
  102339:	88 c2                	mov    %al,%dl
  10233b:	84 c0                	test   %al,%al
  10233d:	75 eb                	jne    10232a <strspn+0x16>
  10233f:	8d 43 ff             	lea    -0x1(%ebx),%eax
  102342:	89 c2                	mov    %eax,%edx
  102344:	8b 45 08             	mov    0x8(%ebp),%eax
  102347:	29 c2                	sub    %eax,%edx
  102349:	89 d0                	mov    %edx,%eax
  10234b:	5b                   	pop    %ebx
  10234c:	5e                   	pop    %esi
  10234d:	5d                   	pop    %ebp
  10234e:	c3                   	ret    
  10234f:	90                   	nop

00102350 <strcpy>:
  102350:	55                   	push   %ebp
  102351:	89 e5                	mov    %esp,%ebp
  102353:	56                   	push   %esi
  102354:	53                   	push   %ebx
  102355:	8b 4d 08             	mov    0x8(%ebp),%ecx
  102358:	8b 75 0c             	mov    0xc(%ebp),%esi
  10235b:	89 cb                	mov    %ecx,%ebx
  10235d:	90                   	nop
  10235e:	89 c8                	mov    %ecx,%eax
  102360:	8d 48 01             	lea    0x1(%eax),%ecx
  102363:	89 f2                	mov    %esi,%edx
  102365:	8d 72 01             	lea    0x1(%edx),%esi
  102368:	8a 12                	mov    (%edx),%dl
  10236a:	88 10                	mov    %dl,(%eax)
  10236c:	8a 00                	mov    (%eax),%al
  10236e:	84 c0                	test   %al,%al
  102370:	75 ec                	jne    10235e <strcpy+0xe>
  102372:	89 d8                	mov    %ebx,%eax
  102374:	5b                   	pop    %ebx
  102375:	5e                   	pop    %esi
  102376:	5d                   	pop    %ebp
  102377:	c3                   	ret    

00102378 <readchar>:
  102378:	55                   	push   %ebp
  102379:	89 e5                	mov    %esp,%ebp
  10237b:	8b 45 08             	mov    0x8(%ebp),%eax
  10237e:	8b 00                	mov    (%eax),%eax
  102380:	8d 48 01             	lea    0x1(%eax),%ecx
  102383:	8b 55 08             	mov    0x8(%ebp),%edx
  102386:	89 0a                	mov    %ecx,(%edx)
  102388:	8a 00                	mov    (%eax),%al
  10238a:	25 ff 00 00 00       	and    $0xff,%eax
  10238f:	5d                   	pop    %ebp
  102390:	c3                   	ret    

00102391 <unchar>:
  102391:	55                   	push   %ebp
  102392:	89 e5                	mov    %esp,%ebp
  102394:	8b 45 0c             	mov    0xc(%ebp),%eax
  102397:	8b 00                	mov    (%eax),%eax
  102399:	8d 50 ff             	lea    -0x1(%eax),%edx
  10239c:	8b 45 0c             	mov    0xc(%ebp),%eax
  10239f:	89 10                	mov    %edx,(%eax)
  1023a1:	5d                   	pop    %ebp
  1023a2:	c3                   	ret    

001023a3 <vsscanf>:
  1023a3:	55                   	push   %ebp
  1023a4:	89 e5                	mov    %esp,%ebp
  1023a6:	83 ec 28             	sub    $0x28,%esp
  1023a9:	8d 45 08             	lea    0x8(%ebp),%eax
  1023ac:	89 44 24 10          	mov    %eax,0x10(%esp)
  1023b0:	c7 44 24 0c 91 23 10 	movl   $0x102391,0xc(%esp)
  1023b7:	00 
  1023b8:	c7 44 24 08 78 23 10 	movl   $0x102378,0x8(%esp)
  1023bf:	00 
  1023c0:	8b 45 10             	mov    0x10(%ebp),%eax
  1023c3:	89 44 24 04          	mov    %eax,0x4(%esp)
  1023c7:	8b 45 0c             	mov    0xc(%ebp),%eax
  1023ca:	89 04 24             	mov    %eax,(%esp)
  1023cd:	e8 02 03 00 00       	call   1026d4 <_doscan>
  1023d2:	c9                   	leave  
  1023d3:	c3                   	ret    

001023d4 <sscanf>:
  1023d4:	55                   	push   %ebp
  1023d5:	89 e5                	mov    %esp,%ebp
  1023d7:	83 ec 28             	sub    $0x28,%esp
  1023da:	8d 45 10             	lea    0x10(%ebp),%eax
  1023dd:	89 45 f4             	mov    %eax,-0xc(%ebp)
  1023e0:	8b 45 f4             	mov    -0xc(%ebp),%eax
  1023e3:	89 44 24 08          	mov    %eax,0x8(%esp)
  1023e7:	8b 45 0c             	mov    0xc(%ebp),%eax
  1023ea:	89 44 24 04          	mov    %eax,0x4(%esp)
  1023ee:	8b 45 08             	mov    0x8(%ebp),%eax
  1023f1:	89 04 24             	mov    %eax,(%esp)
  1023f4:	e8 aa ff ff ff       	call   1023a3 <vsscanf>
  1023f9:	b8 00 00 00 00       	mov    $0x0,%eax
  1023fe:	c9                   	leave  
  1023ff:	c3                   	ret    

00102400 <_puts>:
  102400:	55                   	push   %ebp
  102401:	89 e5                	mov    %esp,%ebp
  102403:	83 ec 18             	sub    $0x18,%esp
  102406:	eb 19                	jmp    102421 <_puts+0x21>
  102408:	8b 45 08             	mov    0x8(%ebp),%eax
  10240b:	8b 80 84 00 00 00    	mov    0x84(%eax),%eax
  102411:	8b 55 0c             	mov    0xc(%ebp),%edx
  102414:	8a 12                	mov    (%edx),%dl
  102416:	0f be d2             	movsbl %dl,%edx
  102419:	89 14 24             	mov    %edx,(%esp)
  10241c:	ff d0                	call   *%eax
  10241e:	ff 45 0c             	incl   0xc(%ebp)
  102421:	8b 45 0c             	mov    0xc(%ebp),%eax
  102424:	8a 00                	mov    (%eax),%al
  102426:	84 c0                	test   %al,%al
  102428:	75 de                	jne    102408 <_puts+0x8>
  10242a:	8b 45 08             	mov    0x8(%ebp),%eax
  10242d:	8b 80 84 00 00 00    	mov    0x84(%eax),%eax
  102433:	c7 04 24 0a 00 00 00 	movl   $0xa,(%esp)
  10243a:	ff d0                	call   *%eax
  10243c:	c9                   	leave  
  10243d:	c3                   	ret    

0010243e <_flush>:
  10243e:	55                   	push   %ebp
  10243f:	89 e5                	mov    %esp,%ebp
  102441:	83 ec 28             	sub    $0x28,%esp
  102444:	c7 45 f4 00 00 00 00 	movl   $0x0,-0xc(%ebp)
  10244b:	eb 1e                	jmp    10246b <_flush+0x2d>
  10244d:	8b 45 08             	mov    0x8(%ebp),%eax
  102450:	8b 80 84 00 00 00    	mov    0x84(%eax),%eax
  102456:	8b 4d 08             	mov    0x8(%ebp),%ecx
  102459:	8b 55 f4             	mov    -0xc(%ebp),%edx
  10245c:	01 ca                	add    %ecx,%edx
  10245e:	8a 12                	mov    (%edx),%dl
  102460:	0f be d2             	movsbl %dl,%edx
  102463:	89 14 24             	mov    %edx,(%esp)
  102466:	ff d0                	call   *%eax
  102468:	ff 45 f4             	incl   -0xc(%ebp)
  10246b:	8b 45 08             	mov    0x8(%ebp),%eax
  10246e:	8b 80 80 00 00 00    	mov    0x80(%eax),%eax
  102474:	3b 45 f4             	cmp    -0xc(%ebp),%eax
  102477:	77 d4                	ja     10244d <_flush+0xf>
  102479:	8b 45 08             	mov    0x8(%ebp),%eax
  10247c:	c7 80 80 00 00 00 00 	movl   $0x0,0x80(%eax)
  102483:	00 00 00 
  102486:	c9                   	leave  
  102487:	c3                   	ret    

00102488 <_printf_callback>:
  102488:	55                   	push   %ebp
  102489:	89 e5                	mov    %esp,%ebp
  10248b:	83 ec 28             	sub    $0x28,%esp
  10248e:	8b 45 08             	mov    0x8(%ebp),%eax
  102491:	89 45 f4             	mov    %eax,-0xc(%ebp)
  102494:	83 7d 0c 0a          	cmpl   $0xa,0xc(%ebp)
  102498:	75 31                	jne    1024cb <_printf_callback+0x43>
  10249a:	8b 45 f4             	mov    -0xc(%ebp),%eax
  10249d:	8b 80 80 00 00 00    	mov    0x80(%eax),%eax
  1024a3:	8b 55 f4             	mov    -0xc(%ebp),%edx
  1024a6:	c6 04 02 00          	movb   $0x0,(%edx,%eax,1)
  1024aa:	8b 45 f4             	mov    -0xc(%ebp),%eax
  1024ad:	89 44 24 04          	mov    %eax,0x4(%esp)
  1024b1:	8b 45 f4             	mov    -0xc(%ebp),%eax
  1024b4:	89 04 24             	mov    %eax,(%esp)
  1024b7:	e8 44 ff ff ff       	call   102400 <_puts>
  1024bc:	8b 45 f4             	mov    -0xc(%ebp),%eax
  1024bf:	c7 80 80 00 00 00 00 	movl   $0x0,0x80(%eax)
  1024c6:	00 00 00 
  1024c9:	eb 5b                	jmp    102526 <_printf_callback+0x9e>
  1024cb:	83 7d 0c 00          	cmpl   $0x0,0xc(%ebp)
  1024cf:	74 0e                	je     1024df <_printf_callback+0x57>
  1024d1:	8b 45 f4             	mov    -0xc(%ebp),%eax
  1024d4:	8b 80 80 00 00 00    	mov    0x80(%eax),%eax
  1024da:	83 f8 7f             	cmp    $0x7f,%eax
  1024dd:	76 1e                	jbe    1024fd <_printf_callback+0x75>
  1024df:	8b 45 f4             	mov    -0xc(%ebp),%eax
  1024e2:	89 04 24             	mov    %eax,(%esp)
  1024e5:	e8 54 ff ff ff       	call   10243e <_flush>
  1024ea:	8b 45 f4             	mov    -0xc(%ebp),%eax
  1024ed:	8b 80 84 00 00 00    	mov    0x84(%eax),%eax
  1024f3:	8b 55 0c             	mov    0xc(%ebp),%edx
  1024f6:	89 14 24             	mov    %edx,(%esp)
  1024f9:	ff d0                	call   *%eax
  1024fb:	eb 29                	jmp    102526 <_printf_callback+0x9e>
  1024fd:	8b 45 f4             	mov    -0xc(%ebp),%eax
  102500:	8b 80 80 00 00 00    	mov    0x80(%eax),%eax
  102506:	8b 55 0c             	mov    0xc(%ebp),%edx
  102509:	88 d1                	mov    %dl,%cl
  10250b:	8b 55 f4             	mov    -0xc(%ebp),%edx
  10250e:	88 0c 02             	mov    %cl,(%edx,%eax,1)
  102511:	8b 45 f4             	mov    -0xc(%ebp),%eax
  102514:	8b 80 80 00 00 00    	mov    0x80(%eax),%eax
  10251a:	8d 50 01             	lea    0x1(%eax),%edx
  10251d:	8b 45 f4             	mov    -0xc(%ebp),%eax
  102520:	89 90 80 00 00 00    	mov    %edx,0x80(%eax)
  102526:	c9                   	leave  
  102527:	c3                   	ret    

00102528 <_vprintf>:
  102528:	55                   	push   %ebp
  102529:	89 e5                	mov    %esp,%ebp
  10252b:	83 ec 28             	sub    $0x28,%esp
  10252e:	8b 45 08             	mov    0x8(%ebp),%eax
  102531:	c7 80 80 00 00 00 00 	movl   $0x0,0x80(%eax)
  102538:	00 00 00 
  10253b:	8b 45 08             	mov    0x8(%ebp),%eax
  10253e:	89 44 24 10          	mov    %eax,0x10(%esp)
  102542:	c7 44 24 0c 88 24 10 	movl   $0x102488,0xc(%esp)
  102549:	00 
  10254a:	c7 44 24 08 00 00 00 	movl   $0x0,0x8(%esp)
  102551:	00 
  102552:	8b 45 10             	mov    0x10(%ebp),%eax
  102555:	89 44 24 04          	mov    %eax,0x4(%esp)
  102559:	8b 45 0c             	mov    0xc(%ebp),%eax
  10255c:	89 04 24             	mov    %eax,(%esp)
  10255f:	e8 ff 04 00 00       	call   102a63 <_doprnt>
  102564:	8b 45 08             	mov    0x8(%ebp),%eax
  102567:	8b 80 80 00 00 00    	mov    0x80(%eax),%eax
  10256d:	85 c0                	test   %eax,%eax
  10256f:	74 0b                	je     10257c <_vprintf+0x54>
  102571:	8b 45 08             	mov    0x8(%ebp),%eax
  102574:	89 04 24             	mov    %eax,(%esp)
  102577:	e8 c2 fe ff ff       	call   10243e <_flush>
  10257c:	b8 00 00 00 00       	mov    $0x0,%eax
  102581:	c9                   	leave  
  102582:	c3                   	ret    
  102583:	90                   	nop

00102584 <savechar>:
  102584:	55                   	push   %ebp
  102585:	89 e5                	mov    %esp,%ebp
  102587:	83 ec 10             	sub    $0x10,%esp
  10258a:	8b 45 08             	mov    0x8(%ebp),%eax
  10258d:	89 45 fc             	mov    %eax,-0x4(%ebp)
  102590:	8b 45 fc             	mov    -0x4(%ebp),%eax
  102593:	8b 40 08             	mov    0x8(%eax),%eax
  102596:	83 f8 ff             	cmp    $0xffffffff,%eax
  102599:	74 12                	je     1025ad <savechar+0x29>
  10259b:	8b 45 fc             	mov    -0x4(%ebp),%eax
  10259e:	8b 50 04             	mov    0x4(%eax),%edx
  1025a1:	8b 45 fc             	mov    -0x4(%ebp),%eax
  1025a4:	8b 40 08             	mov    0x8(%eax),%eax
  1025a7:	39 c2                	cmp    %eax,%edx
  1025a9:	75 02                	jne    1025ad <savechar+0x29>
  1025ab:	eb 26                	jmp    1025d3 <savechar+0x4f>
  1025ad:	8b 45 fc             	mov    -0x4(%ebp),%eax
  1025b0:	8b 40 04             	mov    0x4(%eax),%eax
  1025b3:	8d 50 01             	lea    0x1(%eax),%edx
  1025b6:	8b 45 fc             	mov    -0x4(%ebp),%eax
  1025b9:	89 50 04             	mov    %edx,0x4(%eax)
  1025bc:	8b 45 fc             	mov    -0x4(%ebp),%eax
  1025bf:	8b 00                	mov    (%eax),%eax
  1025c1:	8b 55 0c             	mov    0xc(%ebp),%edx
  1025c4:	88 10                	mov    %dl,(%eax)
  1025c6:	8b 45 fc             	mov    -0x4(%ebp),%eax
  1025c9:	8b 00                	mov    (%eax),%eax
  1025cb:	8d 50 01             	lea    0x1(%eax),%edx
  1025ce:	8b 45 fc             	mov    -0x4(%ebp),%eax
  1025d1:	89 10                	mov    %edx,(%eax)
  1025d3:	c9                   	leave  
  1025d4:	c3                   	ret    

001025d5 <vsprintf>:
  1025d5:	55                   	push   %ebp
  1025d6:	89 e5                	mov    %esp,%ebp
  1025d8:	83 ec 38             	sub    $0x38,%esp
  1025db:	c7 45 f4 ff ff ff ff 	movl   $0xffffffff,-0xc(%ebp)
  1025e2:	c7 45 f0 00 00 00 00 	movl   $0x0,-0x10(%ebp)
  1025e9:	8b 45 08             	mov    0x8(%ebp),%eax
  1025ec:	89 45 ec             	mov    %eax,-0x14(%ebp)
  1025ef:	8d 45 ec             	lea    -0x14(%ebp),%eax
  1025f2:	89 44 24 10          	mov    %eax,0x10(%esp)
  1025f6:	c7 44 24 0c 84 25 10 	movl   $0x102584,0xc(%esp)
  1025fd:	00 
  1025fe:	c7 44 24 08 00 00 00 	movl   $0x0,0x8(%esp)
  102605:	00 
  102606:	8b 45 10             	mov    0x10(%ebp),%eax
  102609:	89 44 24 04          	mov    %eax,0x4(%esp)
  10260d:	8b 45 0c             	mov    0xc(%ebp),%eax
  102610:	89 04 24             	mov    %eax,(%esp)
  102613:	e8 4b 04 00 00       	call   102a63 <_doprnt>
  102618:	8b 45 ec             	mov    -0x14(%ebp),%eax
  10261b:	c6 00 00             	movb   $0x0,(%eax)
  10261e:	8b 45 f0             	mov    -0x10(%ebp),%eax
  102621:	c9                   	leave  
  102622:	c3                   	ret    

00102623 <vsnprintf>:
  102623:	55                   	push   %ebp
  102624:	89 e5                	mov    %esp,%ebp
  102626:	83 ec 38             	sub    $0x38,%esp
  102629:	8b 45 0c             	mov    0xc(%ebp),%eax
  10262c:	89 45 f4             	mov    %eax,-0xc(%ebp)
  10262f:	c7 45 f0 00 00 00 00 	movl   $0x0,-0x10(%ebp)
  102636:	8b 45 08             	mov    0x8(%ebp),%eax
  102639:	89 45 ec             	mov    %eax,-0x14(%ebp)
  10263c:	8d 45 ec             	lea    -0x14(%ebp),%eax
  10263f:	89 44 24 10          	mov    %eax,0x10(%esp)
  102643:	c7 44 24 0c 84 25 10 	movl   $0x102584,0xc(%esp)
  10264a:	00 
  10264b:	c7 44 24 08 00 00 00 	movl   $0x0,0x8(%esp)
  102652:	00 
  102653:	8b 45 14             	mov    0x14(%ebp),%eax
  102656:	89 44 24 04          	mov    %eax,0x4(%esp)
  10265a:	8b 45 10             	mov    0x10(%ebp),%eax
  10265d:	89 04 24             	mov    %eax,(%esp)
  102660:	e8 fe 03 00 00       	call   102a63 <_doprnt>
  102665:	8b 45 ec             	mov    -0x14(%ebp),%eax
  102668:	c6 00 00             	movb   $0x0,(%eax)
  10266b:	8b 45 f0             	mov    -0x10(%ebp),%eax
  10266e:	c9                   	leave  
  10266f:	c3                   	ret    

00102670 <sprintf>:
  102670:	55                   	push   %ebp
  102671:	89 e5                	mov    %esp,%ebp
  102673:	83 ec 28             	sub    $0x28,%esp
  102676:	8d 45 10             	lea    0x10(%ebp),%eax
  102679:	89 45 f0             	mov    %eax,-0x10(%ebp)
  10267c:	8b 45 f0             	mov    -0x10(%ebp),%eax
  10267f:	89 44 24 08          	mov    %eax,0x8(%esp)
  102683:	8b 45 0c             	mov    0xc(%ebp),%eax
  102686:	89 44 24 04          	mov    %eax,0x4(%esp)
  10268a:	8b 45 08             	mov    0x8(%ebp),%eax
  10268d:	89 04 24             	mov    %eax,(%esp)
  102690:	e8 40 ff ff ff       	call   1025d5 <vsprintf>
  102695:	89 45 f4             	mov    %eax,-0xc(%ebp)
  102698:	8b 45 f4             	mov    -0xc(%ebp),%eax
  10269b:	c9                   	leave  
  10269c:	c3                   	ret    

0010269d <snprintf>:
  10269d:	55                   	push   %ebp
  10269e:	89 e5                	mov    %esp,%ebp
  1026a0:	83 ec 28             	sub    $0x28,%esp
  1026a3:	8d 45 14             	lea    0x14(%ebp),%eax
  1026a6:	89 45 f0             	mov    %eax,-0x10(%ebp)
  1026a9:	8b 45 f0             	mov    -0x10(%ebp),%eax
  1026ac:	89 44 24 0c          	mov    %eax,0xc(%esp)
  1026b0:	8b 45 10             	mov    0x10(%ebp),%eax
  1026b3:	89 44 24 08          	mov    %eax,0x8(%esp)
  1026b7:	8b 45 0c             	mov    0xc(%ebp),%eax
  1026ba:	89 44 24 04          	mov    %eax,0x4(%esp)
  1026be:	8b 45 08             	mov    0x8(%ebp),%eax
  1026c1:	89 04 24             	mov    %eax,(%esp)
  1026c4:	e8 5a ff ff ff       	call   102623 <vsnprintf>
  1026c9:	89 45 f4             	mov    %eax,-0xc(%ebp)
  1026cc:	8b 45 f4             	mov    -0xc(%ebp),%eax
  1026cf:	c9                   	leave  
  1026d0:	c3                   	ret    
  1026d1:	66 90                	xchg   %ax,%ax
  1026d3:	90                   	nop

001026d4 <_doscan>:
  1026d4:	55                   	push   %ebp
  1026d5:	89 e5                	mov    %esp,%ebp
  1026d7:	53                   	push   %ebx
  1026d8:	83 ec 34             	sub    $0x34,%esp
  1026db:	c7 45 f0 00 00 00 00 	movl   $0x0,-0x10(%ebp)
  1026e2:	e9 88 02 00 00       	jmp    10296f <_doscan+0x29b>
  1026e7:	83 fb 25             	cmp    $0x25,%ebx
  1026ea:	74 52                	je     10273e <_doscan+0x6a>
  1026ec:	89 1c 24             	mov    %ebx,(%esp)
  1026ef:	e8 9e 17 00 00       	call   103e92 <isspace>
  1026f4:	85 c0                	test   %eax,%eax
  1026f6:	74 2d                	je     102725 <_doscan+0x51>
  1026f8:	8b 45 18             	mov    0x18(%ebp),%eax
  1026fb:	89 04 24             	mov    %eax,(%esp)
  1026fe:	8b 45 10             	mov    0x10(%ebp),%eax
  102701:	ff d0                	call   *%eax
  102703:	89 c3                	mov    %eax,%ebx
  102705:	89 1c 24             	mov    %ebx,(%esp)
  102708:	e8 85 17 00 00       	call   103e92 <isspace>
  10270d:	85 c0                	test   %eax,%eax
  10270f:	75 e7                	jne    1026f8 <_doscan+0x24>
  102711:	8b 45 18             	mov    0x18(%ebp),%eax
  102714:	89 44 24 04          	mov    %eax,0x4(%esp)
  102718:	89 1c 24             	mov    %ebx,(%esp)
  10271b:	8b 45 14             	mov    0x14(%ebp),%eax
  10271e:	ff d0                	call   *%eax
  102720:	e9 4a 02 00 00       	jmp    10296f <_doscan+0x29b>
  102725:	8b 45 18             	mov    0x18(%ebp),%eax
  102728:	89 04 24             	mov    %eax,(%esp)
  10272b:	8b 45 10             	mov    0x10(%ebp),%eax
  10272e:	ff d0                	call   *%eax
  102730:	39 d8                	cmp    %ebx,%eax
  102732:	75 05                	jne    102739 <_doscan+0x65>
  102734:	e9 36 02 00 00       	jmp    10296f <_doscan+0x29b>
  102739:	e9 47 02 00 00       	jmp    102985 <_doscan+0x2b1>
  10273e:	c6 45 f7 00          	movb   $0x0,-0x9(%ebp)
  102742:	8b 45 08             	mov    0x8(%ebp),%eax
  102745:	8d 50 01             	lea    0x1(%eax),%edx
  102748:	89 55 08             	mov    %edx,0x8(%ebp)
  10274b:	8a 00                	mov    (%eax),%al
  10274d:	0f be d8             	movsbl %al,%ebx
  102750:	83 fb 64             	cmp    $0x64,%ebx
  102753:	74 2a                	je     10277f <_doscan+0xab>
  102755:	83 fb 64             	cmp    $0x64,%ebx
  102758:	7f 0e                	jg     102768 <_doscan+0x94>
  10275a:	83 fb 2a             	cmp    $0x2a,%ebx
  10275d:	0f 84 fa 01 00 00    	je     10295d <_doscan+0x289>
  102763:	e9 fe 01 00 00       	jmp    102966 <_doscan+0x292>
  102768:	83 fb 73             	cmp    $0x73,%ebx
  10276b:	0f 84 77 01 00 00    	je     1028e8 <_doscan+0x214>
  102771:	83 fb 78             	cmp    $0x78,%ebx
  102774:	0f 84 a2 00 00 00    	je     10281c <_doscan+0x148>
  10277a:	e9 e7 01 00 00       	jmp    102966 <_doscan+0x292>
  10277f:	c7 45 ec 00 00 00 00 	movl   $0x0,-0x14(%ebp)
  102786:	8b 45 18             	mov    0x18(%ebp),%eax
  102789:	89 04 24             	mov    %eax,(%esp)
  10278c:	8b 45 10             	mov    0x10(%ebp),%eax
  10278f:	ff d0                	call   *%eax
  102791:	89 c3                	mov    %eax,%ebx
  102793:	83 fb 2d             	cmp    $0x2d,%ebx
  102796:	0f 94 c0             	sete   %al
  102799:	88 45 e3             	mov    %al,-0x1d(%ebp)
  10279c:	80 7d e3 00          	cmpb   $0x0,-0x1d(%ebp)
  1027a0:	74 0f                	je     1027b1 <_doscan+0xdd>
  1027a2:	8b 45 18             	mov    0x18(%ebp),%eax
  1027a5:	89 04 24             	mov    %eax,(%esp)
  1027a8:	8b 45 10             	mov    0x10(%ebp),%eax
  1027ab:	ff d0                	call   *%eax
  1027ad:	89 c3                	mov    %eax,%ebx
  1027af:	eb 23                	jmp    1027d4 <_doscan+0x100>
  1027b1:	eb 21                	jmp    1027d4 <_doscan+0x100>
  1027b3:	8b 55 ec             	mov    -0x14(%ebp),%edx
  1027b6:	89 d0                	mov    %edx,%eax
  1027b8:	c1 e0 02             	shl    $0x2,%eax
  1027bb:	01 d0                	add    %edx,%eax
  1027bd:	01 c0                	add    %eax,%eax
  1027bf:	8d 53 d0             	lea    -0x30(%ebx),%edx
  1027c2:	01 d0                	add    %edx,%eax
  1027c4:	89 45 ec             	mov    %eax,-0x14(%ebp)
  1027c7:	8b 45 18             	mov    0x18(%ebp),%eax
  1027ca:	89 04 24             	mov    %eax,(%esp)
  1027cd:	8b 45 10             	mov    0x10(%ebp),%eax
  1027d0:	ff d0                	call   *%eax
  1027d2:	89 c3                	mov    %eax,%ebx
  1027d4:	83 fb 2f             	cmp    $0x2f,%ebx
  1027d7:	7e 05                	jle    1027de <_doscan+0x10a>
  1027d9:	83 fb 39             	cmp    $0x39,%ebx
  1027dc:	7e d5                	jle    1027b3 <_doscan+0xdf>
  1027de:	8b 45 18             	mov    0x18(%ebp),%eax
  1027e1:	89 44 24 04          	mov    %eax,0x4(%esp)
  1027e5:	89 1c 24             	mov    %ebx,(%esp)
  1027e8:	8b 45 14             	mov    0x14(%ebp),%eax
  1027eb:	ff d0                	call   *%eax
  1027ed:	80 7d e3 00          	cmpb   $0x0,-0x1d(%ebp)
  1027f1:	74 03                	je     1027f6 <_doscan+0x122>
  1027f3:	f7 5d ec             	negl   -0x14(%ebp)
  1027f6:	80 7d f7 00          	cmpb   $0x0,-0x9(%ebp)
  1027fa:	75 1b                	jne    102817 <_doscan+0x143>
  1027fc:	8b 45 0c             	mov    0xc(%ebp),%eax
  1027ff:	8d 50 04             	lea    0x4(%eax),%edx
  102802:	89 55 0c             	mov    %edx,0xc(%ebp)
  102805:	8b 00                	mov    (%eax),%eax
  102807:	89 45 dc             	mov    %eax,-0x24(%ebp)
  10280a:	8b 45 dc             	mov    -0x24(%ebp),%eax
  10280d:	8b 55 ec             	mov    -0x14(%ebp),%edx
  102810:	89 10                	mov    %edx,(%eax)
  102812:	e9 4f 01 00 00       	jmp    102966 <_doscan+0x292>
  102817:	e9 4a 01 00 00       	jmp    102966 <_doscan+0x292>
  10281c:	c7 45 e8 00 00 00 00 	movl   $0x0,-0x18(%ebp)
  102823:	8b 45 18             	mov    0x18(%ebp),%eax
  102826:	89 04 24             	mov    %eax,(%esp)
  102829:	8b 45 10             	mov    0x10(%ebp),%eax
  10282c:	ff d0                	call   *%eax
  10282e:	89 c3                	mov    %eax,%ebx
  102830:	83 fb 2d             	cmp    $0x2d,%ebx
  102833:	0f 94 c0             	sete   %al
  102836:	88 45 e3             	mov    %al,-0x1d(%ebp)
  102839:	80 7d e3 00          	cmpb   $0x0,-0x1d(%ebp)
  10283d:	74 0d                	je     10284c <_doscan+0x178>
  10283f:	8b 45 18             	mov    0x18(%ebp),%eax
  102842:	89 04 24             	mov    %eax,(%esp)
  102845:	8b 45 10             	mov    0x10(%ebp),%eax
  102848:	ff d0                	call   *%eax
  10284a:	89 c3                	mov    %eax,%ebx
  10284c:	83 fb 2f             	cmp    $0x2f,%ebx
  10284f:	7e 17                	jle    102868 <_doscan+0x194>
  102851:	83 fb 39             	cmp    $0x39,%ebx
  102854:	7f 12                	jg     102868 <_doscan+0x194>
  102856:	8b 45 e8             	mov    -0x18(%ebp),%eax
  102859:	c1 e0 04             	shl    $0x4,%eax
  10285c:	89 c2                	mov    %eax,%edx
  10285e:	8d 43 d0             	lea    -0x30(%ebx),%eax
  102861:	01 d0                	add    %edx,%eax
  102863:	89 45 e8             	mov    %eax,-0x18(%ebp)
  102866:	eb 36                	jmp    10289e <_doscan+0x1ca>
  102868:	83 fb 60             	cmp    $0x60,%ebx
  10286b:	7e 17                	jle    102884 <_doscan+0x1b0>
  10286d:	83 fb 66             	cmp    $0x66,%ebx
  102870:	7f 12                	jg     102884 <_doscan+0x1b0>
  102872:	8b 45 e8             	mov    -0x18(%ebp),%eax
  102875:	c1 e0 04             	shl    $0x4,%eax
  102878:	89 c2                	mov    %eax,%edx
  10287a:	8d 43 a9             	lea    -0x57(%ebx),%eax
  10287d:	01 d0                	add    %edx,%eax
  10287f:	89 45 e8             	mov    %eax,-0x18(%ebp)
  102882:	eb 1a                	jmp    10289e <_doscan+0x1ca>
  102884:	83 fb 40             	cmp    $0x40,%ebx
  102887:	7e 24                	jle    1028ad <_doscan+0x1d9>
  102889:	83 fb 46             	cmp    $0x46,%ebx
  10288c:	7f 1f                	jg     1028ad <_doscan+0x1d9>
  10288e:	8b 45 e8             	mov    -0x18(%ebp),%eax
  102891:	c1 e0 04             	shl    $0x4,%eax
  102894:	89 c2                	mov    %eax,%edx
  102896:	8d 43 c9             	lea    -0x37(%ebx),%eax
  102899:	01 d0                	add    %edx,%eax
  10289b:	89 45 e8             	mov    %eax,-0x18(%ebp)
  10289e:	8b 45 18             	mov    0x18(%ebp),%eax
  1028a1:	89 04 24             	mov    %eax,(%esp)
  1028a4:	8b 45 10             	mov    0x10(%ebp),%eax
  1028a7:	ff d0                	call   *%eax
  1028a9:	89 c3                	mov    %eax,%ebx
  1028ab:	eb 9f                	jmp    10284c <_doscan+0x178>
  1028ad:	8b 45 18             	mov    0x18(%ebp),%eax
  1028b0:	89 44 24 04          	mov    %eax,0x4(%esp)
  1028b4:	89 1c 24             	mov    %ebx,(%esp)
  1028b7:	8b 45 14             	mov    0x14(%ebp),%eax
  1028ba:	ff d0                	call   *%eax
  1028bc:	80 7d e3 00          	cmpb   $0x0,-0x1d(%ebp)
  1028c0:	74 03                	je     1028c5 <_doscan+0x1f1>
  1028c2:	f7 5d e8             	negl   -0x18(%ebp)
  1028c5:	80 7d f7 00          	cmpb   $0x0,-0x9(%ebp)
  1028c9:	75 1b                	jne    1028e6 <_doscan+0x212>
  1028cb:	8b 45 0c             	mov    0xc(%ebp),%eax
  1028ce:	8d 50 04             	lea    0x4(%eax),%edx
  1028d1:	89 55 0c             	mov    %edx,0xc(%ebp)
  1028d4:	8b 00                	mov    (%eax),%eax
  1028d6:	89 45 d8             	mov    %eax,-0x28(%ebp)
  1028d9:	8b 45 d8             	mov    -0x28(%ebp),%eax
  1028dc:	8b 55 e8             	mov    -0x18(%ebp),%edx
  1028df:	89 10                	mov    %edx,(%eax)
  1028e1:	e9 80 00 00 00       	jmp    102966 <_doscan+0x292>
  1028e6:	eb 7e                	jmp    102966 <_doscan+0x292>
  1028e8:	c7 45 e4 00 00 00 00 	movl   $0x0,-0x1c(%ebp)
  1028ef:	80 7d f7 00          	cmpb   $0x0,-0x9(%ebp)
  1028f3:	75 0e                	jne    102903 <_doscan+0x22f>
  1028f5:	8b 45 0c             	mov    0xc(%ebp),%eax
  1028f8:	8d 50 04             	lea    0x4(%eax),%edx
  1028fb:	89 55 0c             	mov    %edx,0xc(%ebp)
  1028fe:	8b 00                	mov    (%eax),%eax
  102900:	89 45 e4             	mov    %eax,-0x1c(%ebp)
  102903:	8b 45 18             	mov    0x18(%ebp),%eax
  102906:	89 04 24             	mov    %eax,(%esp)
  102909:	8b 45 10             	mov    0x10(%ebp),%eax
  10290c:	ff d0                	call   *%eax
  10290e:	89 c3                	mov    %eax,%ebx
  102910:	eb 20                	jmp    102932 <_doscan+0x25e>
  102912:	80 7d f7 00          	cmpb   $0x0,-0x9(%ebp)
  102916:	75 0d                	jne    102925 <_doscan+0x251>
  102918:	8b 45 e4             	mov    -0x1c(%ebp),%eax
  10291b:	8d 50 01             	lea    0x1(%eax),%edx
  10291e:	89 55 e4             	mov    %edx,-0x1c(%ebp)
  102921:	88 da                	mov    %bl,%dl
  102923:	88 10                	mov    %dl,(%eax)
  102925:	8b 45 18             	mov    0x18(%ebp),%eax
  102928:	89 04 24             	mov    %eax,(%esp)
  10292b:	8b 45 10             	mov    0x10(%ebp),%eax
  10292e:	ff d0                	call   *%eax
  102930:	89 c3                	mov    %eax,%ebx
  102932:	89 1c 24             	mov    %ebx,(%esp)
  102935:	e8 58 15 00 00       	call   103e92 <isspace>
  10293a:	85 c0                	test   %eax,%eax
  10293c:	74 d4                	je     102912 <_doscan+0x23e>
  10293e:	8b 45 18             	mov    0x18(%ebp),%eax
  102941:	89 44 24 04          	mov    %eax,0x4(%esp)
  102945:	89 1c 24             	mov    %ebx,(%esp)
  102948:	8b 45 14             	mov    0x14(%ebp),%eax
  10294b:	ff d0                	call   *%eax
  10294d:	80 7d f7 00          	cmpb   $0x0,-0x9(%ebp)
  102951:	75 08                	jne    10295b <_doscan+0x287>
  102953:	8b 45 e4             	mov    -0x1c(%ebp),%eax
  102956:	c6 00 00             	movb   $0x0,(%eax)
  102959:	eb 0b                	jmp    102966 <_doscan+0x292>
  10295b:	eb 09                	jmp    102966 <_doscan+0x292>
  10295d:	c6 45 f7 01          	movb   $0x1,-0x9(%ebp)
  102961:	e9 dc fd ff ff       	jmp    102742 <_doscan+0x6e>
  102966:	80 7d f7 00          	cmpb   $0x0,-0x9(%ebp)
  10296a:	75 03                	jne    10296f <_doscan+0x29b>
  10296c:	ff 45 f0             	incl   -0x10(%ebp)
  10296f:	8b 45 08             	mov    0x8(%ebp),%eax
  102972:	8d 50 01             	lea    0x1(%eax),%edx
  102975:	89 55 08             	mov    %edx,0x8(%ebp)
  102978:	8a 00                	mov    (%eax),%al
  10297a:	0f be d8             	movsbl %al,%ebx
  10297d:	85 db                	test   %ebx,%ebx
  10297f:	0f 85 62 fd ff ff    	jne    1026e7 <_doscan+0x13>
  102985:	8b 45 f0             	mov    -0x10(%ebp),%eax
  102988:	83 c4 34             	add    $0x34,%esp
  10298b:	5b                   	pop    %ebx
  10298c:	5d                   	pop    %ebp
  10298d:	c3                   	ret    
  10298e:	66 90                	xchg   %ax,%ax

00102990 <printnum>:
  102990:	55                   	push   %ebp
  102991:	89 e5                	mov    %esp,%ebp
  102993:	57                   	push   %edi
  102994:	56                   	push   %esi
  102995:	53                   	push   %ebx
  102996:	83 ec 3c             	sub    $0x3c,%esp
  102999:	8b 4d 08             	mov    0x8(%ebp),%ecx
  10299c:	8d 45 c8             	lea    -0x38(%ebp),%eax
  10299f:	8d 58 1f             	lea    0x1f(%eax),%ebx
  1029a2:	89 de                	mov    %ebx,%esi
  1029a4:	8d 5e ff             	lea    -0x1(%esi),%ebx
  1029a7:	8b 7d 0c             	mov    0xc(%ebp),%edi
  1029aa:	89 c8                	mov    %ecx,%eax
  1029ac:	ba 00 00 00 00       	mov    $0x0,%edx
  1029b1:	f7 f7                	div    %edi
  1029b3:	89 d0                	mov    %edx,%eax
  1029b5:	8a 80 18 e5 10 00    	mov    0x10e518(%eax),%al
  1029bb:	88 06                	mov    %al,(%esi)
  1029bd:	8b 7d 0c             	mov    0xc(%ebp),%edi
  1029c0:	89 c8                	mov    %ecx,%eax
  1029c2:	ba 00 00 00 00       	mov    $0x0,%edx
  1029c7:	f7 f7                	div    %edi
  1029c9:	89 c1                	mov    %eax,%ecx
  1029cb:	85 c9                	test   %ecx,%ecx
  1029cd:	75 d3                	jne    1029a2 <printnum+0x12>
  1029cf:	eb 14                	jmp    1029e5 <printnum+0x55>
  1029d1:	8a 03                	mov    (%ebx),%al
  1029d3:	0f be c0             	movsbl %al,%eax
  1029d6:	89 44 24 04          	mov    %eax,0x4(%esp)
  1029da:	8b 45 14             	mov    0x14(%ebp),%eax
  1029dd:	89 04 24             	mov    %eax,(%esp)
  1029e0:	8b 45 10             	mov    0x10(%ebp),%eax
  1029e3:	ff d0                	call   *%eax
  1029e5:	43                   	inc    %ebx
  1029e6:	8d 45 c8             	lea    -0x38(%ebp),%eax
  1029e9:	83 c0 20             	add    $0x20,%eax
  1029ec:	39 c3                	cmp    %eax,%ebx
  1029ee:	75 e1                	jne    1029d1 <printnum+0x41>
  1029f0:	83 c4 3c             	add    $0x3c,%esp
  1029f3:	5b                   	pop    %ebx
  1029f4:	5e                   	pop    %esi
  1029f5:	5f                   	pop    %edi
  1029f6:	5d                   	pop    %ebp
  1029f7:	c3                   	ret    

001029f8 <printnum_16>:
  1029f8:	55                   	push   %ebp
  1029f9:	89 e5                	mov    %esp,%ebp
  1029fb:	53                   	push   %ebx
  1029fc:	83 ec 24             	sub    $0x24,%esp
  1029ff:	8b 4d 08             	mov    0x8(%ebp),%ecx
  102a02:	8d 45 ec             	lea    -0x14(%ebp),%eax
  102a05:	8d 58 07             	lea    0x7(%eax),%ebx
  102a08:	c7 45 f4 00 00 00 00 	movl   $0x0,-0xc(%ebp)
  102a0f:	eb 18                	jmp    102a29 <printnum_16+0x31>
  102a11:	89 d8                	mov    %ebx,%eax
  102a13:	8d 58 ff             	lea    -0x1(%eax),%ebx
  102a16:	89 ca                	mov    %ecx,%edx
  102a18:	83 e2 0f             	and    $0xf,%edx
  102a1b:	8a 92 18 e5 10 00    	mov    0x10e518(%edx),%dl
  102a21:	88 10                	mov    %dl,(%eax)
  102a23:	c1 e9 04             	shr    $0x4,%ecx
  102a26:	ff 45 f4             	incl   -0xc(%ebp)
  102a29:	83 7d f4 07          	cmpl   $0x7,-0xc(%ebp)
  102a2d:	7e e2                	jle    102a11 <printnum_16+0x19>
  102a2f:	c7 45 f4 00 00 00 00 	movl   $0x0,-0xc(%ebp)
  102a36:	eb 1f                	jmp    102a57 <printnum_16+0x5f>
  102a38:	8d 55 ec             	lea    -0x14(%ebp),%edx
  102a3b:	8b 45 f4             	mov    -0xc(%ebp),%eax
  102a3e:	01 d0                	add    %edx,%eax
  102a40:	8a 00                	mov    (%eax),%al
  102a42:	0f be c0             	movsbl %al,%eax
  102a45:	89 44 24 04          	mov    %eax,0x4(%esp)
  102a49:	8b 45 10             	mov    0x10(%ebp),%eax
  102a4c:	89 04 24             	mov    %eax,(%esp)
  102a4f:	8b 45 0c             	mov    0xc(%ebp),%eax
  102a52:	ff d0                	call   *%eax
  102a54:	ff 45 f4             	incl   -0xc(%ebp)
  102a57:	83 7d f4 07          	cmpl   $0x7,-0xc(%ebp)
  102a5b:	7e db                	jle    102a38 <printnum_16+0x40>
  102a5d:	83 c4 24             	add    $0x24,%esp
  102a60:	5b                   	pop    %ebx
  102a61:	5d                   	pop    %ebp
  102a62:	c3                   	ret    

00102a63 <_doprnt>:
  102a63:	55                   	push   %ebp
  102a64:	89 e5                	mov    %esp,%ebp
  102a66:	57                   	push   %edi
  102a67:	56                   	push   %esi
  102a68:	53                   	push   %ebx
  102a69:	81 ec ac 00 00 00    	sub    $0xac,%esp
  102a6f:	8b 75 08             	mov    0x8(%ebp),%esi
  102a72:	e9 4b 0c 00 00       	jmp    1036c2 <_doprnt+0xc5f>
  102a77:	8a 06                	mov    (%esi),%al
  102a79:	3c 25                	cmp    $0x25,%al
  102a7b:	74 1e                	je     102a9b <_doprnt+0x38>
  102a7d:	89 f0                	mov    %esi,%eax
  102a7f:	8d 70 01             	lea    0x1(%eax),%esi
  102a82:	8a 00                	mov    (%eax),%al
  102a84:	0f be c0             	movsbl %al,%eax
  102a87:	89 44 24 04          	mov    %eax,0x4(%esp)
  102a8b:	8b 45 18             	mov    0x18(%ebp),%eax
  102a8e:	89 04 24             	mov    %eax,(%esp)
  102a91:	8b 45 14             	mov    0x14(%ebp),%eax
  102a94:	ff d0                	call   *%eax
  102a96:	e9 27 0c 00 00       	jmp    1036c2 <_doprnt+0xc5f>
  102a9b:	46                   	inc    %esi
  102a9c:	c7 45 e4 00 00 00 00 	movl   $0x0,-0x1c(%ebp)
  102aa3:	c7 45 e0 ff ff ff ff 	movl   $0xffffffff,-0x20(%ebp)
  102aaa:	c6 45 df 00          	movb   $0x0,-0x21(%ebp)
  102aae:	c6 45 de 20          	movb   $0x20,-0x22(%ebp)
  102ab2:	c7 45 c4 00 00 00 00 	movl   $0x0,-0x3c(%ebp)
  102ab9:	c7 45 c0 00 00 00 00 	movl   $0x0,-0x40(%ebp)
  102ac0:	c6 45 bf 00          	movb   $0x0,-0x41(%ebp)
  102ac4:	c7 45 b4 00 00 00 00 	movl   $0x0,-0x4c(%ebp)
  102acb:	8a 06                	mov    (%esi),%al
  102acd:	3c 23                	cmp    $0x23,%al
  102acf:	75 07                	jne    102ad8 <_doprnt+0x75>
  102ad1:	c6 45 bf 01          	movb   $0x1,-0x41(%ebp)
  102ad5:	46                   	inc    %esi
  102ad6:	eb 3c                	jmp    102b14 <_doprnt+0xb1>
  102ad8:	8a 06                	mov    (%esi),%al
  102ada:	3c 2d                	cmp    $0x2d,%al
  102adc:	75 07                	jne    102ae5 <_doprnt+0x82>
  102ade:	c6 45 df 01          	movb   $0x1,-0x21(%ebp)
  102ae2:	46                   	inc    %esi
  102ae3:	eb 2f                	jmp    102b14 <_doprnt+0xb1>
  102ae5:	8a 06                	mov    (%esi),%al
  102ae7:	3c 2b                	cmp    $0x2b,%al
  102ae9:	75 0a                	jne    102af5 <_doprnt+0x92>
  102aeb:	c7 45 c4 2b 00 00 00 	movl   $0x2b,-0x3c(%ebp)
  102af2:	46                   	inc    %esi
  102af3:	eb 1f                	jmp    102b14 <_doprnt+0xb1>
  102af5:	8a 06                	mov    (%esi),%al
  102af7:	3c 20                	cmp    $0x20,%al
  102af9:	75 10                	jne    102b0b <_doprnt+0xa8>
  102afb:	83 7d c4 00          	cmpl   $0x0,-0x3c(%ebp)
  102aff:	75 07                	jne    102b08 <_doprnt+0xa5>
  102b01:	c7 45 c4 20 00 00 00 	movl   $0x20,-0x3c(%ebp)
  102b08:	46                   	inc    %esi
  102b09:	eb 09                	jmp    102b14 <_doprnt+0xb1>
  102b0b:	90                   	nop
  102b0c:	8a 06                	mov    (%esi),%al
  102b0e:	3c 30                	cmp    $0x30,%al
  102b10:	75 09                	jne    102b1b <_doprnt+0xb8>
  102b12:	eb 02                	jmp    102b16 <_doprnt+0xb3>
  102b14:	eb b5                	jmp    102acb <_doprnt+0x68>
  102b16:	c6 45 de 30          	movb   $0x30,-0x22(%ebp)
  102b1a:	46                   	inc    %esi
  102b1b:	8a 06                	mov    (%esi),%al
  102b1d:	3c 2f                	cmp    $0x2f,%al
  102b1f:	7e 36                	jle    102b57 <_doprnt+0xf4>
  102b21:	8a 06                	mov    (%esi),%al
  102b23:	3c 39                	cmp    $0x39,%al
  102b25:	7f 30                	jg     102b57 <_doprnt+0xf4>
  102b27:	eb 20                	jmp    102b49 <_doprnt+0xe6>
  102b29:	8b 55 e4             	mov    -0x1c(%ebp),%edx
  102b2c:	89 d0                	mov    %edx,%eax
  102b2e:	c1 e0 02             	shl    $0x2,%eax
  102b31:	01 d0                	add    %edx,%eax
  102b33:	01 c0                	add    %eax,%eax
  102b35:	89 c2                	mov    %eax,%edx
  102b37:	89 f0                	mov    %esi,%eax
  102b39:	8d 70 01             	lea    0x1(%eax),%esi
  102b3c:	8a 00                	mov    (%eax),%al
  102b3e:	0f be c0             	movsbl %al,%eax
  102b41:	83 e8 30             	sub    $0x30,%eax
  102b44:	01 d0                	add    %edx,%eax
  102b46:	89 45 e4             	mov    %eax,-0x1c(%ebp)
  102b49:	8a 06                	mov    (%esi),%al
  102b4b:	3c 2f                	cmp    $0x2f,%al
  102b4d:	7e 06                	jle    102b55 <_doprnt+0xf2>
  102b4f:	8a 06                	mov    (%esi),%al
  102b51:	3c 39                	cmp    $0x39,%al
  102b53:	7e d4                	jle    102b29 <_doprnt+0xc6>
  102b55:	eb 28                	jmp    102b7f <_doprnt+0x11c>
  102b57:	8a 06                	mov    (%esi),%al
  102b59:	3c 2a                	cmp    $0x2a,%al
  102b5b:	75 22                	jne    102b7f <_doprnt+0x11c>
  102b5d:	8b 45 0c             	mov    0xc(%ebp),%eax
  102b60:	8d 50 04             	lea    0x4(%eax),%edx
  102b63:	89 55 0c             	mov    %edx,0xc(%ebp)
  102b66:	8b 00                	mov    (%eax),%eax
  102b68:	89 45 e4             	mov    %eax,-0x1c(%ebp)
  102b6b:	46                   	inc    %esi
  102b6c:	83 7d e4 00          	cmpl   $0x0,-0x1c(%ebp)
  102b70:	79 0d                	jns    102b7f <_doprnt+0x11c>
  102b72:	80 7d df 00          	cmpb   $0x0,-0x21(%ebp)
  102b76:	0f 94 c0             	sete   %al
  102b79:	88 45 df             	mov    %al,-0x21(%ebp)
  102b7c:	f7 5d e4             	negl   -0x1c(%ebp)
  102b7f:	8a 06                	mov    (%esi),%al
  102b81:	3c 2e                	cmp    $0x2e,%al
  102b83:	75 5b                	jne    102be0 <_doprnt+0x17d>
  102b85:	46                   	inc    %esi
  102b86:	8a 06                	mov    (%esi),%al
  102b88:	3c 2f                	cmp    $0x2f,%al
  102b8a:	7e 3d                	jle    102bc9 <_doprnt+0x166>
  102b8c:	8a 06                	mov    (%esi),%al
  102b8e:	3c 39                	cmp    $0x39,%al
  102b90:	7f 37                	jg     102bc9 <_doprnt+0x166>
  102b92:	c7 45 e0 00 00 00 00 	movl   $0x0,-0x20(%ebp)
  102b99:	eb 20                	jmp    102bbb <_doprnt+0x158>
  102b9b:	8b 55 e0             	mov    -0x20(%ebp),%edx
  102b9e:	89 d0                	mov    %edx,%eax
  102ba0:	c1 e0 02             	shl    $0x2,%eax
  102ba3:	01 d0                	add    %edx,%eax
  102ba5:	01 c0                	add    %eax,%eax
  102ba7:	89 c2                	mov    %eax,%edx
  102ba9:	89 f0                	mov    %esi,%eax
  102bab:	8d 70 01             	lea    0x1(%eax),%esi
  102bae:	8a 00                	mov    (%eax),%al
  102bb0:	0f be c0             	movsbl %al,%eax
  102bb3:	83 e8 30             	sub    $0x30,%eax
  102bb6:	01 d0                	add    %edx,%eax
  102bb8:	89 45 e0             	mov    %eax,-0x20(%ebp)
  102bbb:	8a 06                	mov    (%esi),%al
  102bbd:	3c 2f                	cmp    $0x2f,%al
  102bbf:	7e 06                	jle    102bc7 <_doprnt+0x164>
  102bc1:	8a 06                	mov    (%esi),%al
  102bc3:	3c 39                	cmp    $0x39,%al
  102bc5:	7e d4                	jle    102b9b <_doprnt+0x138>
  102bc7:	eb 17                	jmp    102be0 <_doprnt+0x17d>
  102bc9:	8a 06                	mov    (%esi),%al
  102bcb:	3c 2a                	cmp    $0x2a,%al
  102bcd:	75 11                	jne    102be0 <_doprnt+0x17d>
  102bcf:	8b 45 0c             	mov    0xc(%ebp),%eax
  102bd2:	8d 50 04             	lea    0x4(%eax),%edx
  102bd5:	89 55 0c             	mov    %edx,0xc(%ebp)
  102bd8:	8b 00                	mov    (%eax),%eax
  102bda:	89 45 e0             	mov    %eax,-0x20(%ebp)
  102bdd:	46                   	inc    %esi
  102bde:	eb 06                	jmp    102be6 <_doprnt+0x183>
  102be0:	eb 04                	jmp    102be6 <_doprnt+0x183>
  102be2:	ff 45 b4             	incl   -0x4c(%ebp)
  102be5:	46                   	inc    %esi
  102be6:	8a 06                	mov    (%esi),%al
  102be8:	3c 6c                	cmp    $0x6c,%al
  102bea:	74 f6                	je     102be2 <_doprnt+0x17f>
  102bec:	c6 45 be 00          	movb   $0x0,-0x42(%ebp)
  102bf0:	8a 06                	mov    (%esi),%al
  102bf2:	0f be c0             	movsbl %al,%eax
  102bf5:	83 f8 7a             	cmp    $0x7a,%eax
  102bf8:	0f 87 a9 0a 00 00    	ja     1036a7 <_doprnt+0xc44>
  102bfe:	8b 04 85 90 9a 10 00 	mov    0x109a90(,%eax,4),%eax
  102c05:	ff e0                	jmp    *%eax
  102c07:	8b 45 0c             	mov    0xc(%ebp),%eax
  102c0a:	8d 50 04             	lea    0x4(%eax),%edx
  102c0d:	89 55 0c             	mov    %edx,0xc(%ebp)
  102c10:	8b 00                	mov    (%eax),%eax
  102c12:	89 45 c8             	mov    %eax,-0x38(%ebp)
  102c15:	c7 45 cc 00 00 00 00 	movl   $0x0,-0x34(%ebp)
  102c1c:	8b 45 0c             	mov    0xc(%ebp),%eax
  102c1f:	8d 50 04             	lea    0x4(%eax),%edx
  102c22:	89 55 0c             	mov    %edx,0xc(%ebp)
  102c25:	8b 18                	mov    (%eax),%ebx
  102c27:	89 d8                	mov    %ebx,%eax
  102c29:	8d 58 01             	lea    0x1(%eax),%ebx
  102c2c:	8a 00                	mov    (%eax),%al
  102c2e:	0f be c0             	movsbl %al,%eax
  102c31:	89 45 b8             	mov    %eax,-0x48(%ebp)
  102c34:	8b 45 18             	mov    0x18(%ebp),%eax
  102c37:	89 44 24 10          	mov    %eax,0x10(%esp)
  102c3b:	8b 45 14             	mov    0x14(%ebp),%eax
  102c3e:	89 44 24 0c          	mov    %eax,0xc(%esp)
  102c42:	8b 45 b8             	mov    -0x48(%ebp),%eax
  102c45:	89 44 24 08          	mov    %eax,0x8(%esp)
  102c49:	8b 45 c8             	mov    -0x38(%ebp),%eax
  102c4c:	8b 55 cc             	mov    -0x34(%ebp),%edx
  102c4f:	89 04 24             	mov    %eax,(%esp)
  102c52:	89 54 24 04          	mov    %edx,0x4(%esp)
  102c56:	e8 35 fd ff ff       	call   102990 <printnum>
  102c5b:	8b 45 c8             	mov    -0x38(%ebp),%eax
  102c5e:	8b 55 cc             	mov    -0x34(%ebp),%edx
  102c61:	09 d0                	or     %edx,%eax
  102c63:	85 c0                	test   %eax,%eax
  102c65:	75 05                	jne    102c6c <_doprnt+0x209>
  102c67:	e9 55 0a 00 00       	jmp    1036c1 <_doprnt+0xc5e>
  102c6c:	c6 45 b3 00          	movb   $0x0,-0x4d(%ebp)
  102c70:	e9 69 01 00 00       	jmp    102dde <_doprnt+0x37b>
  102c75:	8a 03                	mov    (%ebx),%al
  102c77:	3c 20                	cmp    $0x20,%al
  102c79:	0f 8f c0 00 00 00    	jg     102d3f <_doprnt+0x2dc>
  102c7f:	80 7d b3 00          	cmpb   $0x0,-0x4d(%ebp)
  102c83:	74 15                	je     102c9a <_doprnt+0x237>
  102c85:	c7 44 24 04 2c 00 00 	movl   $0x2c,0x4(%esp)
  102c8c:	00 
  102c8d:	8b 45 18             	mov    0x18(%ebp),%eax
  102c90:	89 04 24             	mov    %eax,(%esp)
  102c93:	8b 45 14             	mov    0x14(%ebp),%eax
  102c96:	ff d0                	call   *%eax
  102c98:	eb 17                	jmp    102cb1 <_doprnt+0x24e>
  102c9a:	c7 44 24 04 3c 00 00 	movl   $0x3c,0x4(%esp)
  102ca1:	00 
  102ca2:	8b 45 18             	mov    0x18(%ebp),%eax
  102ca5:	89 04 24             	mov    %eax,(%esp)
  102ca8:	8b 45 14             	mov    0x14(%ebp),%eax
  102cab:	ff d0                	call   *%eax
  102cad:	c6 45 b3 01          	movb   $0x1,-0x4d(%ebp)
  102cb1:	89 d8                	mov    %ebx,%eax
  102cb3:	8d 58 01             	lea    0x1(%eax),%ebx
  102cb6:	8a 00                	mov    (%eax),%al
  102cb8:	0f be c0             	movsbl %al,%eax
  102cbb:	89 85 70 ff ff ff    	mov    %eax,-0x90(%ebp)
  102cc1:	eb 14                	jmp    102cd7 <_doprnt+0x274>
  102cc3:	0f be 45 ab          	movsbl -0x55(%ebp),%eax
  102cc7:	89 44 24 04          	mov    %eax,0x4(%esp)
  102ccb:	8b 45 18             	mov    0x18(%ebp),%eax
  102cce:	89 04 24             	mov    %eax,(%esp)
  102cd1:	8b 45 14             	mov    0x14(%ebp),%eax
  102cd4:	ff d0                	call   *%eax
  102cd6:	43                   	inc    %ebx
  102cd7:	8a 03                	mov    (%ebx),%al
  102cd9:	88 45 ab             	mov    %al,-0x55(%ebp)
  102cdc:	80 7d ab 20          	cmpb   $0x20,-0x55(%ebp)
  102ce0:	7f e1                	jg     102cc3 <_doprnt+0x260>
  102ce2:	8b 85 70 ff ff ff    	mov    -0x90(%ebp),%eax
  102ce8:	8d 48 ff             	lea    -0x1(%eax),%ecx
  102ceb:	8b 45 c8             	mov    -0x38(%ebp),%eax
  102cee:	8b 55 cc             	mov    -0x34(%ebp),%edx
  102cf1:	0f ad d0             	shrd   %cl,%edx,%eax
  102cf4:	d3 ea                	shr    %cl,%edx
  102cf6:	f6 c1 20             	test   $0x20,%cl
  102cf9:	74 04                	je     102cff <_doprnt+0x29c>
  102cfb:	89 d0                	mov    %edx,%eax
  102cfd:	31 d2                	xor    %edx,%edx
  102cff:	89 c7                	mov    %eax,%edi
  102d01:	8b 85 74 ff ff ff    	mov    -0x8c(%ebp),%eax
  102d07:	2b 85 70 ff ff ff    	sub    -0x90(%ebp),%eax
  102d0d:	ba 02 00 00 00       	mov    $0x2,%edx
  102d12:	88 c1                	mov    %al,%cl
  102d14:	d3 e2                	shl    %cl,%edx
  102d16:	89 d0                	mov    %edx,%eax
  102d18:	48                   	dec    %eax
  102d19:	21 c7                	and    %eax,%edi
  102d1b:	89 fa                	mov    %edi,%edx
  102d1d:	8b 45 18             	mov    0x18(%ebp),%eax
  102d20:	89 44 24 0c          	mov    %eax,0xc(%esp)
  102d24:	8b 45 14             	mov    0x14(%ebp),%eax
  102d27:	89 44 24 08          	mov    %eax,0x8(%esp)
  102d2b:	8b 45 b8             	mov    -0x48(%ebp),%eax
  102d2e:	89 44 24 04          	mov    %eax,0x4(%esp)
  102d32:	89 14 24             	mov    %edx,(%esp)
  102d35:	e8 56 fc ff ff       	call   102990 <printnum>
  102d3a:	e9 9f 00 00 00       	jmp    102dde <_doprnt+0x37b>
  102d3f:	8b 85 74 ff ff ff    	mov    -0x8c(%ebp),%eax
  102d45:	48                   	dec    %eax
  102d46:	ba 01 00 00 00       	mov    $0x1,%edx
  102d4b:	88 c1                	mov    %al,%cl
  102d4d:	d3 e2                	shl    %cl,%edx
  102d4f:	89 d0                	mov    %edx,%eax
  102d51:	89 c2                	mov    %eax,%edx
  102d53:	c1 fa 1f             	sar    $0x1f,%edx
  102d56:	89 c7                	mov    %eax,%edi
  102d58:	23 7d c8             	and    -0x38(%ebp),%edi
  102d5b:	89 bd 68 ff ff ff    	mov    %edi,-0x98(%ebp)
  102d61:	89 d0                	mov    %edx,%eax
  102d63:	23 45 cc             	and    -0x34(%ebp),%eax
  102d66:	89 85 6c ff ff ff    	mov    %eax,-0x94(%ebp)
  102d6c:	8b 95 68 ff ff ff    	mov    -0x98(%ebp),%edx
  102d72:	8b 8d 6c ff ff ff    	mov    -0x94(%ebp),%ecx
  102d78:	89 c8                	mov    %ecx,%eax
  102d7a:	09 d0                	or     %edx,%eax
  102d7c:	85 c0                	test   %eax,%eax
  102d7e:	74 55                	je     102dd5 <_doprnt+0x372>
  102d80:	80 7d b3 00          	cmpb   $0x0,-0x4d(%ebp)
  102d84:	74 15                	je     102d9b <_doprnt+0x338>
  102d86:	c7 44 24 04 2c 00 00 	movl   $0x2c,0x4(%esp)
  102d8d:	00 
  102d8e:	8b 45 18             	mov    0x18(%ebp),%eax
  102d91:	89 04 24             	mov    %eax,(%esp)
  102d94:	8b 45 14             	mov    0x14(%ebp),%eax
  102d97:	ff d0                	call   *%eax
  102d99:	eb 2d                	jmp    102dc8 <_doprnt+0x365>
  102d9b:	c7 44 24 04 3c 00 00 	movl   $0x3c,0x4(%esp)
  102da2:	00 
  102da3:	8b 45 18             	mov    0x18(%ebp),%eax
  102da6:	89 04 24             	mov    %eax,(%esp)
  102da9:	8b 45 14             	mov    0x14(%ebp),%eax
  102dac:	ff d0                	call   *%eax
  102dae:	c6 45 b3 01          	movb   $0x1,-0x4d(%ebp)
  102db2:	eb 14                	jmp    102dc8 <_doprnt+0x365>
  102db4:	0f be 45 ab          	movsbl -0x55(%ebp),%eax
  102db8:	89 44 24 04          	mov    %eax,0x4(%esp)
  102dbc:	8b 45 18             	mov    0x18(%ebp),%eax
  102dbf:	89 04 24             	mov    %eax,(%esp)
  102dc2:	8b 45 14             	mov    0x14(%ebp),%eax
  102dc5:	ff d0                	call   *%eax
  102dc7:	43                   	inc    %ebx
  102dc8:	8a 03                	mov    (%ebx),%al
  102dca:	88 45 ab             	mov    %al,-0x55(%ebp)
  102dcd:	80 7d ab 20          	cmpb   $0x20,-0x55(%ebp)
  102dd1:	7f e1                	jg     102db4 <_doprnt+0x351>
  102dd3:	eb 09                	jmp    102dde <_doprnt+0x37b>
  102dd5:	eb 01                	jmp    102dd8 <_doprnt+0x375>
  102dd7:	43                   	inc    %ebx
  102dd8:	8a 03                	mov    (%ebx),%al
  102dda:	3c 20                	cmp    $0x20,%al
  102ddc:	7f f9                	jg     102dd7 <_doprnt+0x374>
  102dde:	89 d8                	mov    %ebx,%eax
  102de0:	8d 58 01             	lea    0x1(%eax),%ebx
  102de3:	8a 00                	mov    (%eax),%al
  102de5:	0f be c0             	movsbl %al,%eax
  102de8:	89 85 74 ff ff ff    	mov    %eax,-0x8c(%ebp)
  102dee:	85 c0                	test   %eax,%eax
  102df0:	0f 85 7f fe ff ff    	jne    102c75 <_doprnt+0x212>
  102df6:	80 7d b3 00          	cmpb   $0x0,-0x4d(%ebp)
  102dfa:	74 18                	je     102e14 <_doprnt+0x3b1>
  102dfc:	c7 44 24 04 3e 00 00 	movl   $0x3e,0x4(%esp)
  102e03:	00 
  102e04:	8b 45 18             	mov    0x18(%ebp),%eax
  102e07:	89 04 24             	mov    %eax,(%esp)
  102e0a:	8b 45 14             	mov    0x14(%ebp),%eax
  102e0d:	ff d0                	call   *%eax
  102e0f:	e9 ad 08 00 00       	jmp    1036c1 <_doprnt+0xc5e>
  102e14:	e9 a8 08 00 00       	jmp    1036c1 <_doprnt+0xc5e>
  102e19:	8b 45 0c             	mov    0xc(%ebp),%eax
  102e1c:	8d 50 04             	lea    0x4(%eax),%edx
  102e1f:	89 55 0c             	mov    %edx,0xc(%ebp)
  102e22:	8b 00                	mov    (%eax),%eax
  102e24:	88 45 ab             	mov    %al,-0x55(%ebp)
  102e27:	0f be 45 ab          	movsbl -0x55(%ebp),%eax
  102e2b:	89 44 24 04          	mov    %eax,0x4(%esp)
  102e2f:	8b 45 18             	mov    0x18(%ebp),%eax
  102e32:	89 04 24             	mov    %eax,(%esp)
  102e35:	8b 45 14             	mov    0x14(%ebp),%eax
  102e38:	ff d0                	call   *%eax
  102e3a:	e9 82 08 00 00       	jmp    1036c1 <_doprnt+0xc5e>
  102e3f:	8b 45 0c             	mov    0xc(%ebp),%eax
  102e42:	8d 50 08             	lea    0x8(%eax),%edx
  102e45:	89 55 0c             	mov    %edx,0xc(%ebp)
  102e48:	8b 50 04             	mov    0x4(%eax),%edx
  102e4b:	8b 00                	mov    (%eax),%eax
  102e4d:	89 45 98             	mov    %eax,-0x68(%ebp)
  102e50:	89 55 9c             	mov    %edx,-0x64(%ebp)
  102e53:	83 7d b4 00          	cmpl   $0x0,-0x4c(%ebp)
  102e57:	0f 84 2c 01 00 00    	je     102f89 <_doprnt+0x526>
  102e5d:	80 7d bf 00          	cmpb   $0x0,-0x41(%ebp)
  102e61:	74 10                	je     102e73 <_doprnt+0x410>
  102e63:	c7 45 d0 13 00 00 00 	movl   $0x13,-0x30(%ebp)
  102e6a:	c7 45 d4 00 00 00 00 	movl   $0x0,-0x2c(%ebp)
  102e71:	eb 0e                	jmp    102e81 <_doprnt+0x41e>
  102e73:	c7 45 d0 11 00 00 00 	movl   $0x11,-0x30(%ebp)
  102e7a:	c7 45 d4 00 00 00 00 	movl   $0x0,-0x2c(%ebp)
  102e81:	83 7d e4 00          	cmpl   $0x0,-0x1c(%ebp)
  102e85:	7e 3a                	jle    102ec1 <_doprnt+0x45e>
  102e87:	80 7d df 00          	cmpb   $0x0,-0x21(%ebp)
  102e8b:	75 34                	jne    102ec1 <_doprnt+0x45e>
  102e8d:	eb 1b                	jmp    102eaa <_doprnt+0x447>
  102e8f:	c7 44 24 04 20 00 00 	movl   $0x20,0x4(%esp)
  102e96:	00 
  102e97:	8b 45 18             	mov    0x18(%ebp),%eax
  102e9a:	89 04 24             	mov    %eax,(%esp)
  102e9d:	8b 45 14             	mov    0x14(%ebp),%eax
  102ea0:	ff d0                	call   *%eax
  102ea2:	83 45 d0 01          	addl   $0x1,-0x30(%ebp)
  102ea6:	83 55 d4 00          	adcl   $0x0,-0x2c(%ebp)
  102eaa:	8b 45 e4             	mov    -0x1c(%ebp),%eax
  102ead:	89 c2                	mov    %eax,%edx
  102eaf:	c1 fa 1f             	sar    $0x1f,%edx
  102eb2:	3b 55 d4             	cmp    -0x2c(%ebp),%edx
  102eb5:	7f d8                	jg     102e8f <_doprnt+0x42c>
  102eb7:	3b 55 d4             	cmp    -0x2c(%ebp),%edx
  102eba:	7c 05                	jl     102ec1 <_doprnt+0x45e>
  102ebc:	3b 45 d0             	cmp    -0x30(%ebp),%eax
  102ebf:	77 ce                	ja     102e8f <_doprnt+0x42c>
  102ec1:	80 7d bf 00          	cmpb   $0x0,-0x41(%ebp)
  102ec5:	74 13                	je     102eda <_doprnt+0x477>
  102ec7:	c7 44 24 04 5b 00 00 	movl   $0x5b,0x4(%esp)
  102ece:	00 
  102ecf:	8b 45 18             	mov    0x18(%ebp),%eax
  102ed2:	89 04 24             	mov    %eax,(%esp)
  102ed5:	8b 45 14             	mov    0x14(%ebp),%eax
  102ed8:	ff d0                	call   *%eax
  102eda:	8b 45 98             	mov    -0x68(%ebp),%eax
  102edd:	8b 55 18             	mov    0x18(%ebp),%edx
  102ee0:	89 54 24 08          	mov    %edx,0x8(%esp)
  102ee4:	8b 55 14             	mov    0x14(%ebp),%edx
  102ee7:	89 54 24 04          	mov    %edx,0x4(%esp)
  102eeb:	89 04 24             	mov    %eax,(%esp)
  102eee:	e8 05 fb ff ff       	call   1029f8 <printnum_16>
  102ef3:	c7 44 24 04 3a 00 00 	movl   $0x3a,0x4(%esp)
  102efa:	00 
  102efb:	8b 45 18             	mov    0x18(%ebp),%eax
  102efe:	89 04 24             	mov    %eax,(%esp)
  102f01:	8b 45 14             	mov    0x14(%ebp),%eax
  102f04:	ff d0                	call   *%eax
  102f06:	8b 45 9c             	mov    -0x64(%ebp),%eax
  102f09:	8b 55 18             	mov    0x18(%ebp),%edx
  102f0c:	89 54 24 08          	mov    %edx,0x8(%esp)
  102f10:	8b 55 14             	mov    0x14(%ebp),%edx
  102f13:	89 54 24 04          	mov    %edx,0x4(%esp)
  102f17:	89 04 24             	mov    %eax,(%esp)
  102f1a:	e8 d9 fa ff ff       	call   1029f8 <printnum_16>
  102f1f:	80 7d bf 00          	cmpb   $0x0,-0x41(%ebp)
  102f23:	74 13                	je     102f38 <_doprnt+0x4d5>
  102f25:	c7 44 24 04 5d 00 00 	movl   $0x5d,0x4(%esp)
  102f2c:	00 
  102f2d:	8b 45 18             	mov    0x18(%ebp),%eax
  102f30:	89 04 24             	mov    %eax,(%esp)
  102f33:	8b 45 14             	mov    0x14(%ebp),%eax
  102f36:	ff d0                	call   *%eax
  102f38:	83 7d e4 00          	cmpl   $0x0,-0x1c(%ebp)
  102f3c:	0f 8e f0 02 00 00    	jle    103232 <_doprnt+0x7cf>
  102f42:	80 7d df 00          	cmpb   $0x0,-0x21(%ebp)
  102f46:	0f 84 e6 02 00 00    	je     103232 <_doprnt+0x7cf>
  102f4c:	eb 1b                	jmp    102f69 <_doprnt+0x506>
  102f4e:	c7 44 24 04 20 00 00 	movl   $0x20,0x4(%esp)
  102f55:	00 
  102f56:	8b 45 18             	mov    0x18(%ebp),%eax
  102f59:	89 04 24             	mov    %eax,(%esp)
  102f5c:	8b 45 14             	mov    0x14(%ebp),%eax
  102f5f:	ff d0                	call   *%eax
  102f61:	83 45 d0 01          	addl   $0x1,-0x30(%ebp)
  102f65:	83 55 d4 00          	adcl   $0x0,-0x2c(%ebp)
  102f69:	8b 45 e4             	mov    -0x1c(%ebp),%eax
  102f6c:	89 c2                	mov    %eax,%edx
  102f6e:	c1 fa 1f             	sar    $0x1f,%edx
  102f71:	3b 55 d4             	cmp    -0x2c(%ebp),%edx
  102f74:	7f d8                	jg     102f4e <_doprnt+0x4eb>
  102f76:	3b 55 d4             	cmp    -0x2c(%ebp),%edx
  102f79:	0f 8c b3 02 00 00    	jl     103232 <_doprnt+0x7cf>
  102f7f:	3b 45 d0             	cmp    -0x30(%ebp),%eax
  102f82:	77 ca                	ja     102f4e <_doprnt+0x4eb>
  102f84:	e9 a9 02 00 00       	jmp    103232 <_doprnt+0x7cf>
  102f89:	80 7d bf 00          	cmpb   $0x0,-0x41(%ebp)
  102f8d:	74 10                	je     102f9f <_doprnt+0x53c>
  102f8f:	c7 45 d0 04 00 00 00 	movl   $0x4,-0x30(%ebp)
  102f96:	c7 45 d4 00 00 00 00 	movl   $0x0,-0x2c(%ebp)
  102f9d:	eb 0e                	jmp    102fad <_doprnt+0x54a>
  102f9f:	c7 45 d0 02 00 00 00 	movl   $0x2,-0x30(%ebp)
  102fa6:	c7 45 d4 00 00 00 00 	movl   $0x0,-0x2c(%ebp)
  102fad:	c7 45 a0 01 00 00 00 	movl   $0x1,-0x60(%ebp)
  102fb4:	c7 45 a4 00 00 00 00 	movl   $0x0,-0x5c(%ebp)
  102fbb:	8b 45 98             	mov    -0x68(%ebp),%eax
  102fbe:	c1 e8 0a             	shr    $0xa,%eax
  102fc1:	83 e0 7f             	and    $0x7f,%eax
  102fc4:	25 ff 00 00 00       	and    $0xff,%eax
  102fc9:	83 f8 0f             	cmp    $0xf,%eax
  102fcc:	0f 9f c1             	setg   %cl
  102fcf:	31 c0                	xor    %eax,%eax
  102fd1:	88 c8                	mov    %cl,%al
  102fd3:	ba 00 00 00 00       	mov    $0x0,%edx
  102fd8:	01 45 a0             	add    %eax,-0x60(%ebp)
  102fdb:	11 55 a4             	adc    %edx,-0x5c(%ebp)
  102fde:	66 8b 45 9a          	mov    -0x66(%ebp),%ax
  102fe2:	66 d1 e8             	shr    %ax
  102fe5:	25 ff 07 00 00       	and    $0x7ff,%eax
  102fea:	25 ff ff 00 00       	and    $0xffff,%eax
  102fef:	83 f8 0f             	cmp    $0xf,%eax
  102ff2:	0f 9f c1             	setg   %cl
  102ff5:	31 c0                	xor    %eax,%eax
  102ff7:	88 c8                	mov    %cl,%al
  102ff9:	ba 00 00 00 00       	mov    $0x0,%edx
  102ffe:	01 45 d0             	add    %eax,-0x30(%ebp)
  103001:	11 55 d4             	adc    %edx,-0x2c(%ebp)
  103004:	66 8b 45 9a          	mov    -0x66(%ebp),%ax
  103008:	66 d1 e8             	shr    %ax
  10300b:	25 ff 07 00 00       	and    $0x7ff,%eax
  103010:	25 ff ff 00 00       	and    $0xffff,%eax
  103015:	3d ff 00 00 00       	cmp    $0xff,%eax
  10301a:	0f 9f c1             	setg   %cl
  10301d:	31 c0                	xor    %eax,%eax
  10301f:	88 c8                	mov    %cl,%al
  103021:	ba 00 00 00 00       	mov    $0x0,%edx
  103026:	01 45 d0             	add    %eax,-0x30(%ebp)
  103029:	11 55 d4             	adc    %edx,-0x2c(%ebp)
  10302c:	83 7d e4 00          	cmpl   $0x0,-0x1c(%ebp)
  103030:	7e 4d                	jle    10307f <_doprnt+0x61c>
  103032:	80 7d df 00          	cmpb   $0x0,-0x21(%ebp)
  103036:	75 47                	jne    10307f <_doprnt+0x61c>
  103038:	80 7d de 20          	cmpb   $0x20,-0x22(%ebp)
  10303c:	75 41                	jne    10307f <_doprnt+0x61c>
  10303e:	eb 1b                	jmp    10305b <_doprnt+0x5f8>
  103040:	c7 44 24 04 20 00 00 	movl   $0x20,0x4(%esp)
  103047:	00 
  103048:	8b 45 18             	mov    0x18(%ebp),%eax
  10304b:	89 04 24             	mov    %eax,(%esp)
  10304e:	8b 45 14             	mov    0x14(%ebp),%eax
  103051:	ff d0                	call   *%eax
  103053:	83 45 d0 01          	addl   $0x1,-0x30(%ebp)
  103057:	83 55 d4 00          	adcl   $0x0,-0x2c(%ebp)
  10305b:	8b 45 d0             	mov    -0x30(%ebp),%eax
  10305e:	8b 55 d4             	mov    -0x2c(%ebp),%edx
  103061:	83 c0 02             	add    $0x2,%eax
  103064:	83 d2 00             	adc    $0x0,%edx
  103067:	89 c1                	mov    %eax,%ecx
  103069:	89 d3                	mov    %edx,%ebx
  10306b:	8b 45 e4             	mov    -0x1c(%ebp),%eax
  10306e:	89 c2                	mov    %eax,%edx
  103070:	c1 fa 1f             	sar    $0x1f,%edx
  103073:	39 d3                	cmp    %edx,%ebx
  103075:	7c c9                	jl     103040 <_doprnt+0x5dd>
  103077:	39 d3                	cmp    %edx,%ebx
  103079:	7f 04                	jg     10307f <_doprnt+0x61c>
  10307b:	39 c1                	cmp    %eax,%ecx
  10307d:	72 c1                	jb     103040 <_doprnt+0x5dd>
  10307f:	80 7d bf 00          	cmpb   $0x0,-0x41(%ebp)
  103083:	74 13                	je     103098 <_doprnt+0x635>
  103085:	c7 44 24 04 5b 00 00 	movl   $0x5b,0x4(%esp)
  10308c:	00 
  10308d:	8b 45 18             	mov    0x18(%ebp),%eax
  103090:	89 04 24             	mov    %eax,(%esp)
  103093:	8b 45 14             	mov    0x14(%ebp),%eax
  103096:	ff d0                	call   *%eax
  103098:	83 7d e4 00          	cmpl   $0x0,-0x1c(%ebp)
  10309c:	7e 4d                	jle    1030eb <_doprnt+0x688>
  10309e:	80 7d df 00          	cmpb   $0x0,-0x21(%ebp)
  1030a2:	75 47                	jne    1030eb <_doprnt+0x688>
  1030a4:	80 7d de 30          	cmpb   $0x30,-0x22(%ebp)
  1030a8:	75 41                	jne    1030eb <_doprnt+0x688>
  1030aa:	eb 1b                	jmp    1030c7 <_doprnt+0x664>
  1030ac:	c7 44 24 04 30 00 00 	movl   $0x30,0x4(%esp)
  1030b3:	00 
  1030b4:	8b 45 18             	mov    0x18(%ebp),%eax
  1030b7:	89 04 24             	mov    %eax,(%esp)
  1030ba:	8b 45 14             	mov    0x14(%ebp),%eax
  1030bd:	ff d0                	call   *%eax
  1030bf:	83 45 d0 01          	addl   $0x1,-0x30(%ebp)
  1030c3:	83 55 d4 00          	adcl   $0x0,-0x2c(%ebp)
  1030c7:	8b 45 d0             	mov    -0x30(%ebp),%eax
  1030ca:	8b 55 d4             	mov    -0x2c(%ebp),%edx
  1030cd:	83 c0 02             	add    $0x2,%eax
  1030d0:	83 d2 00             	adc    $0x0,%edx
  1030d3:	89 c1                	mov    %eax,%ecx
  1030d5:	89 d3                	mov    %edx,%ebx
  1030d7:	8b 45 e4             	mov    -0x1c(%ebp),%eax
  1030da:	89 c2                	mov    %eax,%edx
  1030dc:	c1 fa 1f             	sar    $0x1f,%edx
  1030df:	39 d3                	cmp    %edx,%ebx
  1030e1:	7c c9                	jl     1030ac <_doprnt+0x649>
  1030e3:	39 d3                	cmp    %edx,%ebx
  1030e5:	7f 04                	jg     1030eb <_doprnt+0x688>
  1030e7:	39 c1                	cmp    %eax,%ecx
  1030e9:	72 c1                	jb     1030ac <_doprnt+0x649>
  1030eb:	66 8b 45 9a          	mov    -0x66(%ebp),%ax
  1030ef:	66 d1 e8             	shr    %ax
  1030f2:	25 ff 07 00 00       	and    $0x7ff,%eax
  1030f7:	25 ff ff 00 00       	and    $0xffff,%eax
  1030fc:	8b 55 18             	mov    0x18(%ebp),%edx
  1030ff:	89 54 24 0c          	mov    %edx,0xc(%esp)
  103103:	8b 55 14             	mov    0x14(%ebp),%edx
  103106:	89 54 24 08          	mov    %edx,0x8(%esp)
  10310a:	c7 44 24 04 10 00 00 	movl   $0x10,0x4(%esp)
  103111:	00 
  103112:	89 04 24             	mov    %eax,(%esp)
  103115:	e8 76 f8 ff ff       	call   102990 <printnum>
  10311a:	c7 44 24 04 2e 00 00 	movl   $0x2e,0x4(%esp)
  103121:	00 
  103122:	8b 45 18             	mov    0x18(%ebp),%eax
  103125:	89 04 24             	mov    %eax,(%esp)
  103128:	8b 45 14             	mov    0x14(%ebp),%eax
  10312b:	ff d0                	call   *%eax
  10312d:	83 7d e4 00          	cmpl   $0x0,-0x1c(%ebp)
  103131:	7e 47                	jle    10317a <_doprnt+0x717>
  103133:	80 7d df 00          	cmpb   $0x0,-0x21(%ebp)
  103137:	75 41                	jne    10317a <_doprnt+0x717>
  103139:	eb 1b                	jmp    103156 <_doprnt+0x6f3>
  10313b:	0f be 45 de          	movsbl -0x22(%ebp),%eax
  10313f:	89 44 24 04          	mov    %eax,0x4(%esp)
  103143:	8b 45 18             	mov    0x18(%ebp),%eax
  103146:	89 04 24             	mov    %eax,(%esp)
  103149:	8b 45 14             	mov    0x14(%ebp),%eax
  10314c:	ff d0                	call   *%eax
  10314e:	83 45 d0 01          	addl   $0x1,-0x30(%ebp)
  103152:	83 55 d4 00          	adcl   $0x0,-0x2c(%ebp)
  103156:	8b 45 a0             	mov    -0x60(%ebp),%eax
  103159:	8b 55 a4             	mov    -0x5c(%ebp),%edx
  10315c:	8b 4d d0             	mov    -0x30(%ebp),%ecx
  10315f:	8b 5d d4             	mov    -0x2c(%ebp),%ebx
  103162:	01 c1                	add    %eax,%ecx
  103164:	11 d3                	adc    %edx,%ebx
  103166:	8b 45 e4             	mov    -0x1c(%ebp),%eax
  103169:	89 c2                	mov    %eax,%edx
  10316b:	c1 fa 1f             	sar    $0x1f,%edx
  10316e:	39 d3                	cmp    %edx,%ebx
  103170:	7c c9                	jl     10313b <_doprnt+0x6d8>
  103172:	39 d3                	cmp    %edx,%ebx
  103174:	7f 04                	jg     10317a <_doprnt+0x717>
  103176:	39 c1                	cmp    %eax,%ecx
  103178:	72 c1                	jb     10313b <_doprnt+0x6d8>
  10317a:	8b 45 98             	mov    -0x68(%ebp),%eax
  10317d:	c1 e8 0a             	shr    $0xa,%eax
  103180:	83 e0 7f             	and    $0x7f,%eax
  103183:	25 ff 00 00 00       	and    $0xff,%eax
  103188:	8b 55 18             	mov    0x18(%ebp),%edx
  10318b:	89 54 24 0c          	mov    %edx,0xc(%esp)
  10318f:	8b 55 14             	mov    0x14(%ebp),%edx
  103192:	89 54 24 08          	mov    %edx,0x8(%esp)
  103196:	c7 44 24 04 10 00 00 	movl   $0x10,0x4(%esp)
  10319d:	00 
  10319e:	89 04 24             	mov    %eax,(%esp)
  1031a1:	e8 ea f7 ff ff       	call   102990 <printnum>
  1031a6:	80 7d bf 00          	cmpb   $0x0,-0x41(%ebp)
  1031aa:	74 13                	je     1031bf <_doprnt+0x75c>
  1031ac:	c7 44 24 04 5d 00 00 	movl   $0x5d,0x4(%esp)
  1031b3:	00 
  1031b4:	8b 45 18             	mov    0x18(%ebp),%eax
  1031b7:	89 04 24             	mov    %eax,(%esp)
  1031ba:	8b 45 14             	mov    0x14(%ebp),%eax
  1031bd:	ff d0                	call   *%eax
  1031bf:	8b 45 a0             	mov    -0x60(%ebp),%eax
  1031c2:	8b 55 a4             	mov    -0x5c(%ebp),%edx
  1031c5:	8b 4d d0             	mov    -0x30(%ebp),%ecx
  1031c8:	8b 5d d4             	mov    -0x2c(%ebp),%ebx
  1031cb:	01 c1                	add    %eax,%ecx
  1031cd:	11 d3                	adc    %edx,%ebx
  1031cf:	8b 45 e4             	mov    -0x1c(%ebp),%eax
  1031d2:	89 c2                	mov    %eax,%edx
  1031d4:	c1 fa 1f             	sar    $0x1f,%edx
  1031d7:	39 d3                	cmp    %edx,%ebx
  1031d9:	0f 8f de 04 00 00    	jg     1036bd <_doprnt+0xc5a>
  1031df:	39 d3                	cmp    %edx,%ebx
  1031e1:	7c 08                	jl     1031eb <_doprnt+0x788>
  1031e3:	39 c1                	cmp    %eax,%ecx
  1031e5:	0f 83 d2 04 00 00    	jae    1036bd <_doprnt+0xc5a>
  1031eb:	80 7d df 00          	cmpb   $0x0,-0x21(%ebp)
  1031ef:	74 41                	je     103232 <_doprnt+0x7cf>
  1031f1:	eb 1b                	jmp    10320e <_doprnt+0x7ab>
  1031f3:	c7 44 24 04 20 00 00 	movl   $0x20,0x4(%esp)
  1031fa:	00 
  1031fb:	8b 45 18             	mov    0x18(%ebp),%eax
  1031fe:	89 04 24             	mov    %eax,(%esp)
  103201:	8b 45 14             	mov    0x14(%ebp),%eax
  103204:	ff d0                	call   *%eax
  103206:	83 45 d0 01          	addl   $0x1,-0x30(%ebp)
  10320a:	83 55 d4 00          	adcl   $0x0,-0x2c(%ebp)
  10320e:	8b 45 a0             	mov    -0x60(%ebp),%eax
  103211:	8b 55 a4             	mov    -0x5c(%ebp),%edx
  103214:	8b 4d d0             	mov    -0x30(%ebp),%ecx
  103217:	8b 5d d4             	mov    -0x2c(%ebp),%ebx
  10321a:	01 c1                	add    %eax,%ecx
  10321c:	11 d3                	adc    %edx,%ebx
  10321e:	8b 45 e4             	mov    -0x1c(%ebp),%eax
  103221:	89 c2                	mov    %eax,%edx
  103223:	c1 fa 1f             	sar    $0x1f,%edx
  103226:	39 d3                	cmp    %edx,%ebx
  103228:	7c c9                	jl     1031f3 <_doprnt+0x790>
  10322a:	39 d3                	cmp    %edx,%ebx
  10322c:	7f 04                	jg     103232 <_doprnt+0x7cf>
  10322e:	39 c1                	cmp    %eax,%ecx
  103230:	72 c1                	jb     1031f3 <_doprnt+0x790>
  103232:	90                   	nop
  103233:	e9 85 04 00 00       	jmp    1036bd <_doprnt+0xc5a>
  103238:	83 7d e0 ff          	cmpl   $0xffffffff,-0x20(%ebp)
  10323c:	75 07                	jne    103245 <_doprnt+0x7e2>
  10323e:	c7 45 e0 ff ff ff 7f 	movl   $0x7fffffff,-0x20(%ebp)
  103245:	8b 45 0c             	mov    0xc(%ebp),%eax
  103248:	8d 50 04             	lea    0x4(%eax),%edx
  10324b:	89 55 0c             	mov    %edx,0xc(%ebp)
  10324e:	8b 18                	mov    (%eax),%ebx
  103250:	85 db                	test   %ebx,%ebx
  103252:	75 05                	jne    103259 <_doprnt+0x7f6>
  103254:	bb 88 9a 10 00       	mov    $0x109a88,%ebx
  103259:	83 7d e4 00          	cmpl   $0x0,-0x1c(%ebp)
  10325d:	7e 74                	jle    1032d3 <_doprnt+0x870>
  10325f:	80 7d df 00          	cmpb   $0x0,-0x21(%ebp)
  103263:	75 6e                	jne    1032d3 <_doprnt+0x870>
  103265:	c7 45 d0 00 00 00 00 	movl   $0x0,-0x30(%ebp)
  10326c:	c7 45 d4 00 00 00 00 	movl   $0x0,-0x2c(%ebp)
  103273:	89 df                	mov    %ebx,%edi
  103275:	eb 09                	jmp    103280 <_doprnt+0x81d>
  103277:	83 45 d0 01          	addl   $0x1,-0x30(%ebp)
  10327b:	83 55 d4 00          	adcl   $0x0,-0x2c(%ebp)
  10327f:	43                   	inc    %ebx
  103280:	8a 03                	mov    (%ebx),%al
  103282:	84 c0                	test   %al,%al
  103284:	74 17                	je     10329d <_doprnt+0x83a>
  103286:	8b 45 e0             	mov    -0x20(%ebp),%eax
  103289:	89 c2                	mov    %eax,%edx
  10328b:	c1 fa 1f             	sar    $0x1f,%edx
  10328e:	3b 55 d4             	cmp    -0x2c(%ebp),%edx
  103291:	7f e4                	jg     103277 <_doprnt+0x814>
  103293:	3b 55 d4             	cmp    -0x2c(%ebp),%edx
  103296:	7c 05                	jl     10329d <_doprnt+0x83a>
  103298:	3b 45 d0             	cmp    -0x30(%ebp),%eax
  10329b:	77 da                	ja     103277 <_doprnt+0x814>
  10329d:	89 fb                	mov    %edi,%ebx
  10329f:	eb 1b                	jmp    1032bc <_doprnt+0x859>
  1032a1:	c7 44 24 04 20 00 00 	movl   $0x20,0x4(%esp)
  1032a8:	00 
  1032a9:	8b 45 18             	mov    0x18(%ebp),%eax
  1032ac:	89 04 24             	mov    %eax,(%esp)
  1032af:	8b 45 14             	mov    0x14(%ebp),%eax
  1032b2:	ff d0                	call   *%eax
  1032b4:	83 45 d0 01          	addl   $0x1,-0x30(%ebp)
  1032b8:	83 55 d4 00          	adcl   $0x0,-0x2c(%ebp)
  1032bc:	8b 45 e4             	mov    -0x1c(%ebp),%eax
  1032bf:	89 c2                	mov    %eax,%edx
  1032c1:	c1 fa 1f             	sar    $0x1f,%edx
  1032c4:	3b 55 d4             	cmp    -0x2c(%ebp),%edx
  1032c7:	7f d8                	jg     1032a1 <_doprnt+0x83e>
  1032c9:	3b 55 d4             	cmp    -0x2c(%ebp),%edx
  1032cc:	7c 05                	jl     1032d3 <_doprnt+0x870>
  1032ce:	3b 45 d0             	cmp    -0x30(%ebp),%eax
  1032d1:	77 ce                	ja     1032a1 <_doprnt+0x83e>
  1032d3:	c7 45 d0 00 00 00 00 	movl   $0x0,-0x30(%ebp)
  1032da:	c7 45 d4 00 00 00 00 	movl   $0x0,-0x2c(%ebp)
  1032e1:	eb 3a                	jmp    10331d <_doprnt+0x8ba>
  1032e3:	83 45 d0 01          	addl   $0x1,-0x30(%ebp)
  1032e7:	83 55 d4 00          	adcl   $0x0,-0x2c(%ebp)
  1032eb:	8b 45 e0             	mov    -0x20(%ebp),%eax
  1032ee:	89 c2                	mov    %eax,%edx
  1032f0:	c1 fa 1f             	sar    $0x1f,%edx
  1032f3:	39 55 d4             	cmp    %edx,-0x2c(%ebp)
  1032f6:	7c 0c                	jl     103304 <_doprnt+0x8a1>
  1032f8:	39 55 d4             	cmp    %edx,-0x2c(%ebp)
  1032fb:	7f 05                	jg     103302 <_doprnt+0x89f>
  1032fd:	39 45 d0             	cmp    %eax,-0x30(%ebp)
  103300:	76 02                	jbe    103304 <_doprnt+0x8a1>
  103302:	eb 1f                	jmp    103323 <_doprnt+0x8c0>
  103304:	89 d8                	mov    %ebx,%eax
  103306:	8d 58 01             	lea    0x1(%eax),%ebx
  103309:	8a 00                	mov    (%eax),%al
  10330b:	0f be c0             	movsbl %al,%eax
  10330e:	89 44 24 04          	mov    %eax,0x4(%esp)
  103312:	8b 45 18             	mov    0x18(%ebp),%eax
  103315:	89 04 24             	mov    %eax,(%esp)
  103318:	8b 45 14             	mov    0x14(%ebp),%eax
  10331b:	ff d0                	call   *%eax
  10331d:	8a 03                	mov    (%ebx),%al
  10331f:	84 c0                	test   %al,%al
  103321:	75 c0                	jne    1032e3 <_doprnt+0x880>
  103323:	8b 45 e4             	mov    -0x1c(%ebp),%eax
  103326:	89 c2                	mov    %eax,%edx
  103328:	c1 fa 1f             	sar    $0x1f,%edx
  10332b:	3b 55 d4             	cmp    -0x2c(%ebp),%edx
  10332e:	0f 8c 8c 03 00 00    	jl     1036c0 <_doprnt+0xc5d>
  103334:	3b 55 d4             	cmp    -0x2c(%ebp),%edx
  103337:	7f 09                	jg     103342 <_doprnt+0x8df>
  103339:	3b 45 d0             	cmp    -0x30(%ebp),%eax
  10333c:	0f 86 7e 03 00 00    	jbe    1036c0 <_doprnt+0xc5d>
  103342:	80 7d df 00          	cmpb   $0x0,-0x21(%ebp)
  103346:	74 34                	je     10337c <_doprnt+0x919>
  103348:	eb 1b                	jmp    103365 <_doprnt+0x902>
  10334a:	c7 44 24 04 20 00 00 	movl   $0x20,0x4(%esp)
  103351:	00 
  103352:	8b 45 18             	mov    0x18(%ebp),%eax
  103355:	89 04 24             	mov    %eax,(%esp)
  103358:	8b 45 14             	mov    0x14(%ebp),%eax
  10335b:	ff d0                	call   *%eax
  10335d:	83 45 d0 01          	addl   $0x1,-0x30(%ebp)
  103361:	83 55 d4 00          	adcl   $0x0,-0x2c(%ebp)
  103365:	8b 45 e4             	mov    -0x1c(%ebp),%eax
  103368:	89 c2                	mov    %eax,%edx
  10336a:	c1 fa 1f             	sar    $0x1f,%edx
  10336d:	3b 55 d4             	cmp    -0x2c(%ebp),%edx
  103370:	7f d8                	jg     10334a <_doprnt+0x8e7>
  103372:	3b 55 d4             	cmp    -0x2c(%ebp),%edx
  103375:	7c 05                	jl     10337c <_doprnt+0x919>
  103377:	3b 45 d0             	cmp    -0x30(%ebp),%eax
  10337a:	77 ce                	ja     10334a <_doprnt+0x8e7>
  10337c:	e9 3f 03 00 00       	jmp    1036c0 <_doprnt+0xc5d>
  103381:	a0 08 20 21 00       	mov    0x212008,%al
  103386:	88 45 be             	mov    %al,-0x42(%ebp)
  103389:	c7 45 b8 08 00 00 00 	movl   $0x8,-0x48(%ebp)
  103390:	e9 06 01 00 00       	jmp    10349b <_doprnt+0xa38>
  103395:	a0 08 20 21 00       	mov    0x212008,%al
  10339a:	88 45 be             	mov    %al,-0x42(%ebp)
  10339d:	c7 45 b8 0a 00 00 00 	movl   $0xa,-0x48(%ebp)
  1033a4:	e9 8a 00 00 00       	jmp    103433 <_doprnt+0x9d0>
  1033a9:	a0 08 20 21 00       	mov    0x212008,%al
  1033ae:	88 45 be             	mov    %al,-0x42(%ebp)
  1033b1:	c7 45 b8 0a 00 00 00 	movl   $0xa,-0x48(%ebp)
  1033b8:	e9 de 00 00 00       	jmp    10349b <_doprnt+0xa38>
  1033bd:	c6 45 de 30          	movb   $0x30,-0x22(%ebp)
  1033c1:	c7 45 e4 08 00 00 00 	movl   $0x8,-0x1c(%ebp)
  1033c8:	c7 44 24 04 30 00 00 	movl   $0x30,0x4(%esp)
  1033cf:	00 
  1033d0:	8b 45 18             	mov    0x18(%ebp),%eax
  1033d3:	89 04 24             	mov    %eax,(%esp)
  1033d6:	8b 45 14             	mov    0x14(%ebp),%eax
  1033d9:	ff d0                	call   *%eax
  1033db:	c7 44 24 04 78 00 00 	movl   $0x78,0x4(%esp)
  1033e2:	00 
  1033e3:	8b 45 18             	mov    0x18(%ebp),%eax
  1033e6:	89 04 24             	mov    %eax,(%esp)
  1033e9:	8b 45 14             	mov    0x14(%ebp),%eax
  1033ec:	ff d0                	call   *%eax
  1033ee:	a0 08 20 21 00       	mov    0x212008,%al
  1033f3:	88 45 be             	mov    %al,-0x42(%ebp)
  1033f6:	c7 45 b8 10 00 00 00 	movl   $0x10,-0x48(%ebp)
  1033fd:	e9 99 00 00 00       	jmp    10349b <_doprnt+0xa38>
  103402:	a0 08 20 21 00       	mov    0x212008,%al
  103407:	88 45 be             	mov    %al,-0x42(%ebp)
  10340a:	c7 45 b8 10 00 00 00 	movl   $0x10,-0x48(%ebp)
  103411:	eb 20                	jmp    103433 <_doprnt+0x9d0>
  103413:	a0 08 20 21 00       	mov    0x212008,%al
  103418:	88 45 be             	mov    %al,-0x42(%ebp)
  10341b:	8b 45 10             	mov    0x10(%ebp),%eax
  10341e:	89 45 b8             	mov    %eax,-0x48(%ebp)
  103421:	eb 10                	jmp    103433 <_doprnt+0x9d0>
  103423:	a0 08 20 21 00       	mov    0x212008,%al
  103428:	88 45 be             	mov    %al,-0x42(%ebp)
  10342b:	8b 45 10             	mov    0x10(%ebp),%eax
  10342e:	89 45 b8             	mov    %eax,-0x48(%ebp)
  103431:	eb 68                	jmp    10349b <_doprnt+0xa38>
  103433:	83 7d b4 01          	cmpl   $0x1,-0x4c(%ebp)
  103437:	7e 16                	jle    10344f <_doprnt+0x9ec>
  103439:	8b 45 0c             	mov    0xc(%ebp),%eax
  10343c:	8d 50 08             	lea    0x8(%eax),%edx
  10343f:	89 55 0c             	mov    %edx,0xc(%ebp)
  103442:	8b 50 04             	mov    0x4(%eax),%edx
  103445:	8b 00                	mov    (%eax),%eax
  103447:	89 45 d0             	mov    %eax,-0x30(%ebp)
  10344a:	89 55 d4             	mov    %edx,-0x2c(%ebp)
  10344d:	eb 16                	jmp    103465 <_doprnt+0xa02>
  10344f:	8b 45 0c             	mov    0xc(%ebp),%eax
  103452:	8d 50 04             	lea    0x4(%eax),%edx
  103455:	89 55 0c             	mov    %edx,0xc(%ebp)
  103458:	8b 00                	mov    (%eax),%eax
  10345a:	89 c2                	mov    %eax,%edx
  10345c:	c1 fa 1f             	sar    $0x1f,%edx
  10345f:	89 45 d0             	mov    %eax,-0x30(%ebp)
  103462:	89 55 d4             	mov    %edx,-0x2c(%ebp)
  103465:	83 7d d4 00          	cmpl   $0x0,-0x2c(%ebp)
  103469:	78 14                	js     10347f <_doprnt+0xa1c>
  10346b:	8b 45 d0             	mov    -0x30(%ebp),%eax
  10346e:	8b 55 d4             	mov    -0x2c(%ebp),%edx
  103471:	89 45 c8             	mov    %eax,-0x38(%ebp)
  103474:	89 55 cc             	mov    %edx,-0x34(%ebp)
  103477:	8b 45 c4             	mov    -0x3c(%ebp),%eax
  10347a:	89 45 c0             	mov    %eax,-0x40(%ebp)
  10347d:	eb 4e                	jmp    1034cd <_doprnt+0xa6a>
  10347f:	8b 45 d0             	mov    -0x30(%ebp),%eax
  103482:	8b 55 d4             	mov    -0x2c(%ebp),%edx
  103485:	f7 d8                	neg    %eax
  103487:	83 d2 00             	adc    $0x0,%edx
  10348a:	f7 da                	neg    %edx
  10348c:	89 45 c8             	mov    %eax,-0x38(%ebp)
  10348f:	89 55 cc             	mov    %edx,-0x34(%ebp)
  103492:	c7 45 c0 2d 00 00 00 	movl   $0x2d,-0x40(%ebp)
  103499:	eb 32                	jmp    1034cd <_doprnt+0xa6a>
  10349b:	83 7d b4 01          	cmpl   $0x1,-0x4c(%ebp)
  10349f:	7e 16                	jle    1034b7 <_doprnt+0xa54>
  1034a1:	8b 45 0c             	mov    0xc(%ebp),%eax
  1034a4:	8d 50 08             	lea    0x8(%eax),%edx
  1034a7:	89 55 0c             	mov    %edx,0xc(%ebp)
  1034aa:	8b 50 04             	mov    0x4(%eax),%edx
  1034ad:	8b 00                	mov    (%eax),%eax
  1034af:	89 45 c8             	mov    %eax,-0x38(%ebp)
  1034b2:	89 55 cc             	mov    %edx,-0x34(%ebp)
  1034b5:	eb 15                	jmp    1034cc <_doprnt+0xa69>
  1034b7:	8b 45 0c             	mov    0xc(%ebp),%eax
  1034ba:	8d 50 04             	lea    0x4(%eax),%edx
  1034bd:	89 55 0c             	mov    %edx,0xc(%ebp)
  1034c0:	8b 00                	mov    (%eax),%eax
  1034c2:	89 45 c8             	mov    %eax,-0x38(%ebp)
  1034c5:	c7 45 cc 00 00 00 00 	movl   $0x0,-0x34(%ebp)
  1034cc:	90                   	nop
  1034cd:	8d 85 78 ff ff ff    	lea    -0x88(%ebp),%eax
  1034d3:	8d 78 1f             	lea    0x1f(%eax),%edi
  1034d6:	c7 45 ac 00 00 00 00 	movl   $0x0,-0x54(%ebp)
  1034dd:	80 7d be 00          	cmpb   $0x0,-0x42(%ebp)
  1034e1:	74 0e                	je     1034f1 <_doprnt+0xa8e>
  1034e3:	8b 45 c8             	mov    -0x38(%ebp),%eax
  1034e6:	89 c2                	mov    %eax,%edx
  1034e8:	c1 fa 1f             	sar    $0x1f,%edx
  1034eb:	89 45 c8             	mov    %eax,-0x38(%ebp)
  1034ee:	89 55 cc             	mov    %edx,-0x34(%ebp)
  1034f1:	8b 45 c8             	mov    -0x38(%ebp),%eax
  1034f4:	8b 55 cc             	mov    -0x34(%ebp),%edx
  1034f7:	09 d0                	or     %edx,%eax
  1034f9:	85 c0                	test   %eax,%eax
  1034fb:	74 22                	je     10351f <_doprnt+0xabc>
  1034fd:	80 7d bf 00          	cmpb   $0x0,-0x41(%ebp)
  103501:	74 1c                	je     10351f <_doprnt+0xabc>
  103503:	83 7d b8 08          	cmpl   $0x8,-0x48(%ebp)
  103507:	75 09                	jne    103512 <_doprnt+0xaaf>
  103509:	c7 45 ac 89 9a 10 00 	movl   $0x109a89,-0x54(%ebp)
  103510:	eb 0d                	jmp    10351f <_doprnt+0xabc>
  103512:	83 7d b8 10          	cmpl   $0x10,-0x48(%ebp)
  103516:	75 07                	jne    10351f <_doprnt+0xabc>
  103518:	c7 45 ac 8b 9a 10 00 	movl   $0x109a8b,-0x54(%ebp)
  10351f:	89 f8                	mov    %edi,%eax
  103521:	89 85 74 ff ff ff    	mov    %eax,-0x8c(%ebp)
  103527:	8d 78 ff             	lea    -0x1(%eax),%edi
  10352a:	8b 45 b8             	mov    -0x48(%ebp),%eax
  10352d:	89 c1                	mov    %eax,%ecx
  10352f:	89 c3                	mov    %eax,%ebx
  103531:	c1 fb 1f             	sar    $0x1f,%ebx
  103534:	8b 45 c8             	mov    -0x38(%ebp),%eax
  103537:	8b 55 cc             	mov    -0x34(%ebp),%edx
  10353a:	89 4c 24 08          	mov    %ecx,0x8(%esp)
  10353e:	89 5c 24 0c          	mov    %ebx,0xc(%esp)
  103542:	89 04 24             	mov    %eax,(%esp)
  103545:	89 54 24 04          	mov    %edx,0x4(%esp)
  103549:	e8 f2 57 00 00       	call   108d40 <__umoddi3>
  10354e:	05 29 e5 10 00       	add    $0x10e529,%eax
  103553:	8a 00                	mov    (%eax),%al
  103555:	8b 9d 74 ff ff ff    	mov    -0x8c(%ebp),%ebx
  10355b:	88 03                	mov    %al,(%ebx)
  10355d:	8b 45 b8             	mov    -0x48(%ebp),%eax
  103560:	89 c2                	mov    %eax,%edx
  103562:	c1 fa 1f             	sar    $0x1f,%edx
  103565:	89 44 24 08          	mov    %eax,0x8(%esp)
  103569:	89 54 24 0c          	mov    %edx,0xc(%esp)
  10356d:	8b 45 c8             	mov    -0x38(%ebp),%eax
  103570:	8b 55 cc             	mov    -0x34(%ebp),%edx
  103573:	89 04 24             	mov    %eax,(%esp)
  103576:	89 54 24 04          	mov    %edx,0x4(%esp)
  10357a:	e8 91 56 00 00       	call   108c10 <__udivdi3>
  10357f:	89 45 c8             	mov    %eax,-0x38(%ebp)
  103582:	89 55 cc             	mov    %edx,-0x34(%ebp)
  103585:	8b 45 c8             	mov    -0x38(%ebp),%eax
  103588:	8b 55 cc             	mov    -0x34(%ebp),%edx
  10358b:	09 d0                	or     %edx,%eax
  10358d:	85 c0                	test   %eax,%eax
  10358f:	75 8e                	jne    10351f <_doprnt+0xabc>
  103591:	89 f8                	mov    %edi,%eax
  103593:	8d 95 78 ff ff ff    	lea    -0x88(%ebp),%edx
  103599:	83 c2 1f             	add    $0x1f,%edx
  10359c:	29 d0                	sub    %edx,%eax
  10359e:	01 45 e4             	add    %eax,-0x1c(%ebp)
  1035a1:	83 7d c0 00          	cmpl   $0x0,-0x40(%ebp)
  1035a5:	74 03                	je     1035aa <_doprnt+0xb47>
  1035a7:	ff 4d e4             	decl   -0x1c(%ebp)
  1035aa:	83 7d ac 00          	cmpl   $0x0,-0x54(%ebp)
  1035ae:	74 15                	je     1035c5 <_doprnt+0xb62>
  1035b0:	8b 5d e4             	mov    -0x1c(%ebp),%ebx
  1035b3:	8b 45 ac             	mov    -0x54(%ebp),%eax
  1035b6:	89 04 24             	mov    %eax,(%esp)
  1035b9:	e8 e6 ec ff ff       	call   1022a4 <strlen>
  1035be:	29 c3                	sub    %eax,%ebx
  1035c0:	89 d8                	mov    %ebx,%eax
  1035c2:	89 45 e4             	mov    %eax,-0x1c(%ebp)
  1035c5:	80 7d de 20          	cmpb   $0x20,-0x22(%ebp)
  1035c9:	75 24                	jne    1035ef <_doprnt+0xb8c>
  1035cb:	80 7d df 00          	cmpb   $0x0,-0x21(%ebp)
  1035cf:	75 1e                	jne    1035ef <_doprnt+0xb8c>
  1035d1:	eb 13                	jmp    1035e6 <_doprnt+0xb83>
  1035d3:	c7 44 24 04 20 00 00 	movl   $0x20,0x4(%esp)
  1035da:	00 
  1035db:	8b 45 18             	mov    0x18(%ebp),%eax
  1035de:	89 04 24             	mov    %eax,(%esp)
  1035e1:	8b 45 14             	mov    0x14(%ebp),%eax
  1035e4:	ff d0                	call   *%eax
  1035e6:	ff 4d e4             	decl   -0x1c(%ebp)
  1035e9:	83 7d e4 00          	cmpl   $0x0,-0x1c(%ebp)
  1035ed:	79 e4                	jns    1035d3 <_doprnt+0xb70>
  1035ef:	83 7d c0 00          	cmpl   $0x0,-0x40(%ebp)
  1035f3:	74 12                	je     103607 <_doprnt+0xba4>
  1035f5:	8b 45 c0             	mov    -0x40(%ebp),%eax
  1035f8:	89 44 24 04          	mov    %eax,0x4(%esp)
  1035fc:	8b 45 18             	mov    0x18(%ebp),%eax
  1035ff:	89 04 24             	mov    %eax,(%esp)
  103602:	8b 45 14             	mov    0x14(%ebp),%eax
  103605:	ff d0                	call   *%eax
  103607:	83 7d ac 00          	cmpl   $0x0,-0x54(%ebp)
  10360b:	74 28                	je     103635 <_doprnt+0xbd2>
  10360d:	eb 1d                	jmp    10362c <_doprnt+0xbc9>
  10360f:	8b 45 ac             	mov    -0x54(%ebp),%eax
  103612:	8d 50 01             	lea    0x1(%eax),%edx
  103615:	89 55 ac             	mov    %edx,-0x54(%ebp)
  103618:	8a 00                	mov    (%eax),%al
  10361a:	0f be c0             	movsbl %al,%eax
  10361d:	89 44 24 04          	mov    %eax,0x4(%esp)
  103621:	8b 45 18             	mov    0x18(%ebp),%eax
  103624:	89 04 24             	mov    %eax,(%esp)
  103627:	8b 45 14             	mov    0x14(%ebp),%eax
  10362a:	ff d0                	call   *%eax
  10362c:	8b 45 ac             	mov    -0x54(%ebp),%eax
  10362f:	8a 00                	mov    (%eax),%al
  103631:	84 c0                	test   %al,%al
  103633:	75 da                	jne    10360f <_doprnt+0xbac>
  103635:	80 7d de 30          	cmpb   $0x30,-0x22(%ebp)
  103639:	75 1e                	jne    103659 <_doprnt+0xbf6>
  10363b:	eb 13                	jmp    103650 <_doprnt+0xbed>
  10363d:	c7 44 24 04 30 00 00 	movl   $0x30,0x4(%esp)
  103644:	00 
  103645:	8b 45 18             	mov    0x18(%ebp),%eax
  103648:	89 04 24             	mov    %eax,(%esp)
  10364b:	8b 45 14             	mov    0x14(%ebp),%eax
  10364e:	ff d0                	call   *%eax
  103650:	ff 4d e4             	decl   -0x1c(%ebp)
  103653:	83 7d e4 00          	cmpl   $0x0,-0x1c(%ebp)
  103657:	79 e4                	jns    10363d <_doprnt+0xbda>
  103659:	eb 14                	jmp    10366f <_doprnt+0xc0c>
  10365b:	8a 07                	mov    (%edi),%al
  10365d:	0f be c0             	movsbl %al,%eax
  103660:	89 44 24 04          	mov    %eax,0x4(%esp)
  103664:	8b 45 18             	mov    0x18(%ebp),%eax
  103667:	89 04 24             	mov    %eax,(%esp)
  10366a:	8b 45 14             	mov    0x14(%ebp),%eax
  10366d:	ff d0                	call   *%eax
  10366f:	47                   	inc    %edi
  103670:	8d 85 78 ff ff ff    	lea    -0x88(%ebp),%eax
  103676:	83 c0 20             	add    $0x20,%eax
  103679:	39 c7                	cmp    %eax,%edi
  10367b:	75 de                	jne    10365b <_doprnt+0xbf8>
  10367d:	80 7d df 00          	cmpb   $0x0,-0x21(%ebp)
  103681:	74 1e                	je     1036a1 <_doprnt+0xc3e>
  103683:	eb 13                	jmp    103698 <_doprnt+0xc35>
  103685:	c7 44 24 04 20 00 00 	movl   $0x20,0x4(%esp)
  10368c:	00 
  10368d:	8b 45 18             	mov    0x18(%ebp),%eax
  103690:	89 04 24             	mov    %eax,(%esp)
  103693:	8b 45 14             	mov    0x14(%ebp),%eax
  103696:	ff d0                	call   *%eax
  103698:	ff 4d e4             	decl   -0x1c(%ebp)
  10369b:	83 7d e4 00          	cmpl   $0x0,-0x1c(%ebp)
  10369f:	79 e4                	jns    103685 <_doprnt+0xc22>
  1036a1:	90                   	nop
  1036a2:	eb 1d                	jmp    1036c1 <_doprnt+0xc5e>
  1036a4:	4e                   	dec    %esi
  1036a5:	eb 1a                	jmp    1036c1 <_doprnt+0xc5e>
  1036a7:	8a 06                	mov    (%esi),%al
  1036a9:	0f be c0             	movsbl %al,%eax
  1036ac:	89 44 24 04          	mov    %eax,0x4(%esp)
  1036b0:	8b 45 18             	mov    0x18(%ebp),%eax
  1036b3:	89 04 24             	mov    %eax,(%esp)
  1036b6:	8b 45 14             	mov    0x14(%ebp),%eax
  1036b9:	ff d0                	call   *%eax
  1036bb:	eb 04                	jmp    1036c1 <_doprnt+0xc5e>
  1036bd:	90                   	nop
  1036be:	eb 01                	jmp    1036c1 <_doprnt+0xc5e>
  1036c0:	90                   	nop
  1036c1:	46                   	inc    %esi
  1036c2:	8a 06                	mov    (%esi),%al
  1036c4:	84 c0                	test   %al,%al
  1036c6:	0f 85 ab f3 ff ff    	jne    102a77 <_doprnt+0x14>
  1036cc:	81 c4 ac 00 00 00    	add    $0xac,%esp
  1036d2:	5b                   	pop    %ebx
  1036d3:	5e                   	pop    %esi
  1036d4:	5f                   	pop    %edi
  1036d5:	5d                   	pop    %ebp
  1036d6:	c3                   	ret    
  1036d7:	90                   	nop

001036d8 <atol>:
  1036d8:	55                   	push   %ebp
  1036d9:	89 e5                	mov    %esp,%ebp
  1036db:	83 ec 18             	sub    $0x18,%esp
  1036de:	c7 44 24 08 0a 00 00 	movl   $0xa,0x8(%esp)
  1036e5:	00 
  1036e6:	c7 44 24 04 00 00 00 	movl   $0x0,0x4(%esp)
  1036ed:	00 
  1036ee:	8b 45 08             	mov    0x8(%ebp),%eax
  1036f1:	89 04 24             	mov    %eax,(%esp)
  1036f4:	e8 1f 0a 00 00       	call   104118 <strtol>
  1036f9:	c9                   	leave  
  1036fa:	c3                   	ret    
  1036fb:	90                   	nop

001036fc <swapfunc>:
  1036fc:	55                   	push   %ebp
  1036fd:	89 e5                	mov    %esp,%ebp
  1036ff:	57                   	push   %edi
  103700:	56                   	push   %esi
  103701:	53                   	push   %ebx
  103702:	83 ec 10             	sub    $0x10,%esp
  103705:	83 7d 14 01          	cmpl   $0x1,0x14(%ebp)
  103709:	7f 2c                	jg     103737 <swapfunc+0x3b>
  10370b:	8b 45 10             	mov    0x10(%ebp),%eax
  10370e:	c1 e8 02             	shr    $0x2,%eax
  103711:	89 45 f0             	mov    %eax,-0x10(%ebp)
  103714:	8b 75 08             	mov    0x8(%ebp),%esi
  103717:	8b 5d 0c             	mov    0xc(%ebp),%ebx
  10371a:	8b 3e                	mov    (%esi),%edi
  10371c:	89 f0                	mov    %esi,%eax
  10371e:	8d 70 04             	lea    0x4(%eax),%esi
  103721:	8b 13                	mov    (%ebx),%edx
  103723:	89 10                	mov    %edx,(%eax)
  103725:	89 d8                	mov    %ebx,%eax
  103727:	8d 58 04             	lea    0x4(%eax),%ebx
  10372a:	89 38                	mov    %edi,(%eax)
  10372c:	ff 4d f0             	decl   -0x10(%ebp)
  10372f:	83 7d f0 00          	cmpl   $0x0,-0x10(%ebp)
  103733:	7f e5                	jg     10371a <swapfunc+0x1e>
  103735:	eb 2a                	jmp    103761 <swapfunc+0x65>
  103737:	8b 45 10             	mov    0x10(%ebp),%eax
  10373a:	89 45 ec             	mov    %eax,-0x14(%ebp)
  10373d:	8b 75 08             	mov    0x8(%ebp),%esi
  103740:	8b 5d 0c             	mov    0xc(%ebp),%ebx
  103743:	0f b6 3e             	movzbl (%esi),%edi
  103746:	89 f0                	mov    %esi,%eax
  103748:	8d 70 01             	lea    0x1(%eax),%esi
  10374b:	8a 13                	mov    (%ebx),%dl
  10374d:	88 10                	mov    %dl,(%eax)
  10374f:	89 d8                	mov    %ebx,%eax
  103751:	8d 58 01             	lea    0x1(%eax),%ebx
  103754:	89 f9                	mov    %edi,%ecx
  103756:	88 08                	mov    %cl,(%eax)
  103758:	ff 4d ec             	decl   -0x14(%ebp)
  10375b:	83 7d ec 00          	cmpl   $0x0,-0x14(%ebp)
  10375f:	7f e2                	jg     103743 <swapfunc+0x47>
  103761:	83 c4 10             	add    $0x10,%esp
  103764:	5b                   	pop    %ebx
  103765:	5e                   	pop    %esi
  103766:	5f                   	pop    %edi
  103767:	5d                   	pop    %ebp
  103768:	c3                   	ret    

00103769 <med3>:
  103769:	55                   	push   %ebp
  10376a:	89 e5                	mov    %esp,%ebp
  10376c:	83 ec 18             	sub    $0x18,%esp
  10376f:	8b 45 0c             	mov    0xc(%ebp),%eax
  103772:	89 44 24 04          	mov    %eax,0x4(%esp)
  103776:	8b 45 08             	mov    0x8(%ebp),%eax
  103779:	89 04 24             	mov    %eax,(%esp)
  10377c:	8b 45 14             	mov    0x14(%ebp),%eax
  10377f:	ff d0                	call   *%eax
  103781:	85 c0                	test   %eax,%eax
  103783:	79 3b                	jns    1037c0 <med3+0x57>
  103785:	8b 45 10             	mov    0x10(%ebp),%eax
  103788:	89 44 24 04          	mov    %eax,0x4(%esp)
  10378c:	8b 45 0c             	mov    0xc(%ebp),%eax
  10378f:	89 04 24             	mov    %eax,(%esp)
  103792:	8b 45 14             	mov    0x14(%ebp),%eax
  103795:	ff d0                	call   *%eax
  103797:	85 c0                	test   %eax,%eax
  103799:	78 20                	js     1037bb <med3+0x52>
  10379b:	8b 45 10             	mov    0x10(%ebp),%eax
  10379e:	89 44 24 04          	mov    %eax,0x4(%esp)
  1037a2:	8b 45 08             	mov    0x8(%ebp),%eax
  1037a5:	89 04 24             	mov    %eax,(%esp)
  1037a8:	8b 45 14             	mov    0x14(%ebp),%eax
  1037ab:	ff d0                	call   *%eax
  1037ad:	85 c0                	test   %eax,%eax
  1037af:	79 05                	jns    1037b6 <med3+0x4d>
  1037b1:	8b 45 10             	mov    0x10(%ebp),%eax
  1037b4:	eb 43                	jmp    1037f9 <med3+0x90>
  1037b6:	8b 45 08             	mov    0x8(%ebp),%eax
  1037b9:	eb 3e                	jmp    1037f9 <med3+0x90>
  1037bb:	8b 45 0c             	mov    0xc(%ebp),%eax
  1037be:	eb 39                	jmp    1037f9 <med3+0x90>
  1037c0:	8b 45 10             	mov    0x10(%ebp),%eax
  1037c3:	89 44 24 04          	mov    %eax,0x4(%esp)
  1037c7:	8b 45 0c             	mov    0xc(%ebp),%eax
  1037ca:	89 04 24             	mov    %eax,(%esp)
  1037cd:	8b 45 14             	mov    0x14(%ebp),%eax
  1037d0:	ff d0                	call   *%eax
  1037d2:	85 c0                	test   %eax,%eax
  1037d4:	7f 20                	jg     1037f6 <med3+0x8d>
  1037d6:	8b 45 10             	mov    0x10(%ebp),%eax
  1037d9:	89 44 24 04          	mov    %eax,0x4(%esp)
  1037dd:	8b 45 08             	mov    0x8(%ebp),%eax
  1037e0:	89 04 24             	mov    %eax,(%esp)
  1037e3:	8b 45 14             	mov    0x14(%ebp),%eax
  1037e6:	ff d0                	call   *%eax
  1037e8:	85 c0                	test   %eax,%eax
  1037ea:	79 05                	jns    1037f1 <med3+0x88>
  1037ec:	8b 45 08             	mov    0x8(%ebp),%eax
  1037ef:	eb 08                	jmp    1037f9 <med3+0x90>
  1037f1:	8b 45 10             	mov    0x10(%ebp),%eax
  1037f4:	eb 03                	jmp    1037f9 <med3+0x90>
  1037f6:	8b 45 0c             	mov    0xc(%ebp),%eax
  1037f9:	c9                   	leave  
  1037fa:	c3                   	ret    

001037fb <qsort>:
  1037fb:	55                   	push   %ebp
  1037fc:	89 e5                	mov    %esp,%ebp
  1037fe:	83 ec 68             	sub    $0x68,%esp
  103801:	8b 45 08             	mov    0x8(%ebp),%eax
  103804:	83 e0 03             	and    $0x3,%eax
  103807:	85 c0                	test   %eax,%eax
  103809:	75 18                	jne    103823 <qsort+0x28>
  10380b:	8b 45 10             	mov    0x10(%ebp),%eax
  10380e:	83 e0 03             	and    $0x3,%eax
  103811:	85 c0                	test   %eax,%eax
  103813:	75 0e                	jne    103823 <qsort+0x28>
  103815:	83 7d 10 04          	cmpl   $0x4,0x10(%ebp)
  103819:	0f 95 c0             	setne  %al
  10381c:	25 ff 00 00 00       	and    $0xff,%eax
  103821:	eb 05                	jmp    103828 <qsort+0x2d>
  103823:	b8 02 00 00 00       	mov    $0x2,%eax
  103828:	89 45 d4             	mov    %eax,-0x2c(%ebp)
  10382b:	c7 45 d8 00 00 00 00 	movl   $0x0,-0x28(%ebp)
  103832:	83 7d 0c 06          	cmpl   $0x6,0xc(%ebp)
  103836:	0f 87 ca 00 00 00    	ja     103906 <qsort+0x10b>
  10383c:	8b 45 10             	mov    0x10(%ebp),%eax
  10383f:	8b 55 08             	mov    0x8(%ebp),%edx
  103842:	01 d0                	add    %edx,%eax
  103844:	89 45 e0             	mov    %eax,-0x20(%ebp)
  103847:	e9 9e 00 00 00       	jmp    1038ea <qsort+0xef>
  10384c:	8b 45 e0             	mov    -0x20(%ebp),%eax
  10384f:	89 45 e4             	mov    %eax,-0x1c(%ebp)
  103852:	eb 65                	jmp    1038b9 <qsort+0xbe>
  103854:	83 7d d4 00          	cmpl   $0x0,-0x2c(%ebp)
  103858:	75 2e                	jne    103888 <qsort+0x8d>
  10385a:	8b 45 e4             	mov    -0x1c(%ebp),%eax
  10385d:	8b 00                	mov    (%eax),%eax
  10385f:	89 45 d0             	mov    %eax,-0x30(%ebp)
  103862:	8b 45 10             	mov    0x10(%ebp),%eax
  103865:	f7 d8                	neg    %eax
  103867:	89 c2                	mov    %eax,%edx
  103869:	8b 45 e4             	mov    -0x1c(%ebp),%eax
  10386c:	01 d0                	add    %edx,%eax
  10386e:	8b 10                	mov    (%eax),%edx
  103870:	8b 45 e4             	mov    -0x1c(%ebp),%eax
  103873:	89 10                	mov    %edx,(%eax)
  103875:	8b 45 10             	mov    0x10(%ebp),%eax
  103878:	f7 d8                	neg    %eax
  10387a:	89 c2                	mov    %eax,%edx
  10387c:	8b 45 e4             	mov    -0x1c(%ebp),%eax
  10387f:	01 c2                	add    %eax,%edx
  103881:	8b 45 d0             	mov    -0x30(%ebp),%eax
  103884:	89 02                	mov    %eax,(%edx)
  103886:	eb 29                	jmp    1038b1 <qsort+0xb6>
  103888:	8b 45 10             	mov    0x10(%ebp),%eax
  10388b:	8b 55 10             	mov    0x10(%ebp),%edx
  10388e:	89 d1                	mov    %edx,%ecx
  103890:	f7 d9                	neg    %ecx
  103892:	8b 55 e4             	mov    -0x1c(%ebp),%edx
  103895:	01 d1                	add    %edx,%ecx
  103897:	8b 55 d4             	mov    -0x2c(%ebp),%edx
  10389a:	89 54 24 0c          	mov    %edx,0xc(%esp)
  10389e:	89 44 24 08          	mov    %eax,0x8(%esp)
  1038a2:	89 4c 24 04          	mov    %ecx,0x4(%esp)
  1038a6:	8b 45 e4             	mov    -0x1c(%ebp),%eax
  1038a9:	89 04 24             	mov    %eax,(%esp)
  1038ac:	e8 4b fe ff ff       	call   1036fc <swapfunc>
  1038b1:	8b 45 10             	mov    0x10(%ebp),%eax
  1038b4:	f7 d8                	neg    %eax
  1038b6:	01 45 e4             	add    %eax,-0x1c(%ebp)
  1038b9:	8b 45 e4             	mov    -0x1c(%ebp),%eax
  1038bc:	3b 45 08             	cmp    0x8(%ebp),%eax
  1038bf:	76 23                	jbe    1038e4 <qsort+0xe9>
  1038c1:	8b 45 10             	mov    0x10(%ebp),%eax
  1038c4:	f7 d8                	neg    %eax
  1038c6:	89 c2                	mov    %eax,%edx
  1038c8:	8b 45 e4             	mov    -0x1c(%ebp),%eax
  1038cb:	01 c2                	add    %eax,%edx
  1038cd:	8b 45 e4             	mov    -0x1c(%ebp),%eax
  1038d0:	89 44 24 04          	mov    %eax,0x4(%esp)
  1038d4:	89 14 24             	mov    %edx,(%esp)
  1038d7:	8b 45 14             	mov    0x14(%ebp),%eax
  1038da:	ff d0                	call   *%eax
  1038dc:	85 c0                	test   %eax,%eax
  1038de:	0f 8f 70 ff ff ff    	jg     103854 <qsort+0x59>
  1038e4:	8b 45 10             	mov    0x10(%ebp),%eax
  1038e7:	01 45 e0             	add    %eax,-0x20(%ebp)
  1038ea:	8b 45 0c             	mov    0xc(%ebp),%eax
  1038ed:	0f af 45 10          	imul   0x10(%ebp),%eax
  1038f1:	89 c2                	mov    %eax,%edx
  1038f3:	8b 45 08             	mov    0x8(%ebp),%eax
  1038f6:	01 d0                	add    %edx,%eax
  1038f8:	3b 45 e0             	cmp    -0x20(%ebp),%eax
  1038fb:	0f 87 4b ff ff ff    	ja     10384c <qsort+0x51>
  103901:	e9 da 04 00 00       	jmp    103de0 <qsort+0x5e5>
  103906:	8b 45 0c             	mov    0xc(%ebp),%eax
  103909:	d1 e8                	shr    %eax
  10390b:	0f af 45 10          	imul   0x10(%ebp),%eax
  10390f:	89 c2                	mov    %eax,%edx
  103911:	8b 45 08             	mov    0x8(%ebp),%eax
  103914:	01 d0                	add    %edx,%eax
  103916:	89 45 e0             	mov    %eax,-0x20(%ebp)
  103919:	83 7d 0c 07          	cmpl   $0x7,0xc(%ebp)
  10391d:	0f 86 ee 00 00 00    	jbe    103a11 <qsort+0x216>
  103923:	8b 45 08             	mov    0x8(%ebp),%eax
  103926:	89 45 e4             	mov    %eax,-0x1c(%ebp)
  103929:	8b 45 0c             	mov    0xc(%ebp),%eax
  10392c:	48                   	dec    %eax
  10392d:	0f af 45 10          	imul   0x10(%ebp),%eax
  103931:	89 c2                	mov    %eax,%edx
  103933:	8b 45 08             	mov    0x8(%ebp),%eax
  103936:	01 d0                	add    %edx,%eax
  103938:	89 45 dc             	mov    %eax,-0x24(%ebp)
  10393b:	83 7d 0c 28          	cmpl   $0x28,0xc(%ebp)
  10393f:	0f 86 a9 00 00 00    	jbe    1039ee <qsort+0x1f3>
  103945:	8b 45 0c             	mov    0xc(%ebp),%eax
  103948:	c1 e8 03             	shr    $0x3,%eax
  10394b:	0f af 45 10          	imul   0x10(%ebp),%eax
  10394f:	89 45 cc             	mov    %eax,-0x34(%ebp)
  103952:	8b 45 cc             	mov    -0x34(%ebp),%eax
  103955:	01 c0                	add    %eax,%eax
  103957:	89 c2                	mov    %eax,%edx
  103959:	8b 45 e4             	mov    -0x1c(%ebp),%eax
  10395c:	8d 0c 02             	lea    (%edx,%eax,1),%ecx
  10395f:	8b 55 cc             	mov    -0x34(%ebp),%edx
  103962:	8b 45 e4             	mov    -0x1c(%ebp),%eax
  103965:	01 c2                	add    %eax,%edx
  103967:	8b 45 14             	mov    0x14(%ebp),%eax
  10396a:	89 44 24 0c          	mov    %eax,0xc(%esp)
  10396e:	89 4c 24 08          	mov    %ecx,0x8(%esp)
  103972:	89 54 24 04          	mov    %edx,0x4(%esp)
  103976:	8b 45 e4             	mov    -0x1c(%ebp),%eax
  103979:	89 04 24             	mov    %eax,(%esp)
  10397c:	e8 e8 fd ff ff       	call   103769 <med3>
  103981:	89 45 e4             	mov    %eax,-0x1c(%ebp)
  103984:	8b 55 cc             	mov    -0x34(%ebp),%edx
  103987:	8b 45 e0             	mov    -0x20(%ebp),%eax
  10398a:	8d 0c 02             	lea    (%edx,%eax,1),%ecx
  10398d:	8b 45 cc             	mov    -0x34(%ebp),%eax
  103990:	f7 d8                	neg    %eax
  103992:	89 c2                	mov    %eax,%edx
  103994:	8b 45 e0             	mov    -0x20(%ebp),%eax
  103997:	01 c2                	add    %eax,%edx
  103999:	8b 45 14             	mov    0x14(%ebp),%eax
  10399c:	89 44 24 0c          	mov    %eax,0xc(%esp)
  1039a0:	89 4c 24 08          	mov    %ecx,0x8(%esp)
  1039a4:	8b 45 e0             	mov    -0x20(%ebp),%eax
  1039a7:	89 44 24 04          	mov    %eax,0x4(%esp)
  1039ab:	89 14 24             	mov    %edx,(%esp)
  1039ae:	e8 b6 fd ff ff       	call   103769 <med3>
  1039b3:	89 45 e0             	mov    %eax,-0x20(%ebp)
  1039b6:	8b 45 cc             	mov    -0x34(%ebp),%eax
  1039b9:	f7 d8                	neg    %eax
  1039bb:	89 c2                	mov    %eax,%edx
  1039bd:	8b 45 dc             	mov    -0x24(%ebp),%eax
  1039c0:	8d 0c 02             	lea    (%edx,%eax,1),%ecx
  1039c3:	8b 45 cc             	mov    -0x34(%ebp),%eax
  1039c6:	01 c0                	add    %eax,%eax
  1039c8:	f7 d8                	neg    %eax
  1039ca:	89 c2                	mov    %eax,%edx
  1039cc:	8b 45 dc             	mov    -0x24(%ebp),%eax
  1039cf:	01 c2                	add    %eax,%edx
  1039d1:	8b 45 14             	mov    0x14(%ebp),%eax
  1039d4:	89 44 24 0c          	mov    %eax,0xc(%esp)
  1039d8:	8b 45 dc             	mov    -0x24(%ebp),%eax
  1039db:	89 44 24 08          	mov    %eax,0x8(%esp)
  1039df:	89 4c 24 04          	mov    %ecx,0x4(%esp)
  1039e3:	89 14 24             	mov    %edx,(%esp)
  1039e6:	e8 7e fd ff ff       	call   103769 <med3>
  1039eb:	89 45 dc             	mov    %eax,-0x24(%ebp)
  1039ee:	8b 45 14             	mov    0x14(%ebp),%eax
  1039f1:	89 44 24 0c          	mov    %eax,0xc(%esp)
  1039f5:	8b 45 dc             	mov    -0x24(%ebp),%eax
  1039f8:	89 44 24 08          	mov    %eax,0x8(%esp)
  1039fc:	8b 45 e0             	mov    -0x20(%ebp),%eax
  1039ff:	89 44 24 04          	mov    %eax,0x4(%esp)
  103a03:	8b 45 e4             	mov    -0x1c(%ebp),%eax
  103a06:	89 04 24             	mov    %eax,(%esp)
  103a09:	e8 5b fd ff ff       	call   103769 <med3>
  103a0e:	89 45 e0             	mov    %eax,-0x20(%ebp)
  103a11:	83 7d d4 00          	cmpl   $0x0,-0x2c(%ebp)
  103a15:	75 1c                	jne    103a33 <qsort+0x238>
  103a17:	8b 45 08             	mov    0x8(%ebp),%eax
  103a1a:	8b 00                	mov    (%eax),%eax
  103a1c:	89 45 c8             	mov    %eax,-0x38(%ebp)
  103a1f:	8b 45 e0             	mov    -0x20(%ebp),%eax
  103a22:	8b 10                	mov    (%eax),%edx
  103a24:	8b 45 08             	mov    0x8(%ebp),%eax
  103a27:	89 10                	mov    %edx,(%eax)
  103a29:	8b 45 e0             	mov    -0x20(%ebp),%eax
  103a2c:	8b 55 c8             	mov    -0x38(%ebp),%edx
  103a2f:	89 10                	mov    %edx,(%eax)
  103a31:	eb 20                	jmp    103a53 <qsort+0x258>
  103a33:	8b 45 10             	mov    0x10(%ebp),%eax
  103a36:	8b 55 d4             	mov    -0x2c(%ebp),%edx
  103a39:	89 54 24 0c          	mov    %edx,0xc(%esp)
  103a3d:	89 44 24 08          	mov    %eax,0x8(%esp)
  103a41:	8b 45 e0             	mov    -0x20(%ebp),%eax
  103a44:	89 44 24 04          	mov    %eax,0x4(%esp)
  103a48:	8b 45 08             	mov    0x8(%ebp),%eax
  103a4b:	89 04 24             	mov    %eax,(%esp)
  103a4e:	e8 a9 fc ff ff       	call   1036fc <swapfunc>
  103a53:	8b 45 10             	mov    0x10(%ebp),%eax
  103a56:	8b 55 08             	mov    0x8(%ebp),%edx
  103a59:	01 d0                	add    %edx,%eax
  103a5b:	89 45 f0             	mov    %eax,-0x10(%ebp)
  103a5e:	8b 45 f0             	mov    -0x10(%ebp),%eax
  103a61:	89 45 f4             	mov    %eax,-0xc(%ebp)
  103a64:	8b 45 0c             	mov    0xc(%ebp),%eax
  103a67:	48                   	dec    %eax
  103a68:	0f af 45 10          	imul   0x10(%ebp),%eax
  103a6c:	89 c2                	mov    %eax,%edx
  103a6e:	8b 45 08             	mov    0x8(%ebp),%eax
  103a71:	01 d0                	add    %edx,%eax
  103a73:	89 45 e8             	mov    %eax,-0x18(%ebp)
  103a76:	8b 45 e8             	mov    -0x18(%ebp),%eax
  103a79:	89 45 ec             	mov    %eax,-0x14(%ebp)
  103a7c:	eb 5b                	jmp    103ad9 <qsort+0x2de>
  103a7e:	83 7d c4 00          	cmpl   $0x0,-0x3c(%ebp)
  103a82:	75 4f                	jne    103ad3 <qsort+0x2d8>
  103a84:	c7 45 d8 01 00 00 00 	movl   $0x1,-0x28(%ebp)
  103a8b:	83 7d d4 00          	cmpl   $0x0,-0x2c(%ebp)
  103a8f:	75 1c                	jne    103aad <qsort+0x2b2>
  103a91:	8b 45 f4             	mov    -0xc(%ebp),%eax
  103a94:	8b 00                	mov    (%eax),%eax
  103a96:	89 45 c0             	mov    %eax,-0x40(%ebp)
  103a99:	8b 45 f0             	mov    -0x10(%ebp),%eax
  103a9c:	8b 10                	mov    (%eax),%edx
  103a9e:	8b 45 f4             	mov    -0xc(%ebp),%eax
  103aa1:	89 10                	mov    %edx,(%eax)
  103aa3:	8b 45 f0             	mov    -0x10(%ebp),%eax
  103aa6:	8b 55 c0             	mov    -0x40(%ebp),%edx
